
Ping Pong.elf:     file format elf32-avr

Sections:
Idx Name          Size      VMA       LMA       File off  Algn
  0 .data         00000172  00800100  0000286c  00002900  2**0
                  CONTENTS, ALLOC, LOAD, DATA
  1 .text         0000286c  00000000  00000000  00000094  2**1
                  CONTENTS, ALLOC, LOAD, READONLY, CODE
  2 .bss          0000001a  00800272  00800272  00002a72  2**0
                  ALLOC
  3 .comment      0000005c  00000000  00000000  00002a72  2**0
                  CONTENTS, READONLY
  4 .debug_aranges 00000270  00000000  00000000  00002ace  2**0
                  CONTENTS, READONLY, DEBUGGING
  5 .debug_info   000027d1  00000000  00000000  00002d3e  2**0
                  CONTENTS, READONLY, DEBUGGING
  6 .debug_abbrev 00000dc1  00000000  00000000  0000550f  2**0
                  CONTENTS, READONLY, DEBUGGING
  7 .debug_line   00000bcb  00000000  00000000  000062d0  2**0
                  CONTENTS, READONLY, DEBUGGING
  8 .debug_frame  000006fc  00000000  00000000  00006e9c  2**2
                  CONTENTS, READONLY, DEBUGGING
  9 .debug_str    0000077f  00000000  00000000  00007598  2**0
                  CONTENTS, READONLY, DEBUGGING
 10 .debug_loc    00001c8b  00000000  00000000  00007d17  2**0
                  CONTENTS, READONLY, DEBUGGING
 11 .debug_ranges 00000218  00000000  00000000  000099a2  2**0
                  CONTENTS, READONLY, DEBUGGING

Disassembly of section .text:

00000000 <__vectors>:
       0:	0c 94 77 03 	jmp	0x6ee	; 0x6ee <__ctors_end>
       4:	0c 94 94 03 	jmp	0x728	; 0x728 <__bad_interrupt>
       8:	0c 94 94 03 	jmp	0x728	; 0x728 <__bad_interrupt>
       c:	0c 94 94 03 	jmp	0x728	; 0x728 <__bad_interrupt>
      10:	0c 94 94 03 	jmp	0x728	; 0x728 <__bad_interrupt>
      14:	0c 94 94 03 	jmp	0x728	; 0x728 <__bad_interrupt>
      18:	0c 94 94 03 	jmp	0x728	; 0x728 <__bad_interrupt>
      1c:	0c 94 94 03 	jmp	0x728	; 0x728 <__bad_interrupt>
      20:	0c 94 94 03 	jmp	0x728	; 0x728 <__bad_interrupt>
      24:	0c 94 94 03 	jmp	0x728	; 0x728 <__bad_interrupt>
      28:	0c 94 94 03 	jmp	0x728	; 0x728 <__bad_interrupt>
      2c:	0c 94 94 03 	jmp	0x728	; 0x728 <__bad_interrupt>
      30:	0c 94 94 03 	jmp	0x728	; 0x728 <__bad_interrupt>
      34:	0c 94 94 03 	jmp	0x728	; 0x728 <__bad_interrupt>
      38:	0c 94 94 03 	jmp	0x728	; 0x728 <__bad_interrupt>
      3c:	0c 94 94 03 	jmp	0x728	; 0x728 <__bad_interrupt>
      40:	0c 94 94 03 	jmp	0x728	; 0x728 <__bad_interrupt>
      44:	0c 94 94 03 	jmp	0x728	; 0x728 <__bad_interrupt>
      48:	0c 94 94 03 	jmp	0x728	; 0x728 <__bad_interrupt>
      4c:	0c 94 94 03 	jmp	0x728	; 0x728 <__bad_interrupt>
      50:	0c 94 94 03 	jmp	0x728	; 0x728 <__bad_interrupt>
      54:	0c 94 94 03 	jmp	0x728	; 0x728 <__bad_interrupt>
      58:	0c 94 94 03 	jmp	0x728	; 0x728 <__bad_interrupt>
      5c:	0c 94 94 03 	jmp	0x728	; 0x728 <__bad_interrupt>
      60:	0c 94 94 03 	jmp	0x728	; 0x728 <__bad_interrupt>
      64:	0c 94 94 03 	jmp	0x728	; 0x728 <__bad_interrupt>
      68:	0c 94 94 03 	jmp	0x728	; 0x728 <__bad_interrupt>
      6c:	0c 94 94 03 	jmp	0x728	; 0x728 <__bad_interrupt>
      70:	08 4a       	sbci	r16, 0xA8	; 168
      72:	d7 3b       	cpi	r29, 0xB7	; 183
      74:	3b ce       	rjmp	.-906    	; 0xfffffcec <__eeprom_end+0xff7efcec>
      76:	01 6e       	ori	r16, 0xE1	; 225
      78:	84 bc       	out	0x24, r8	; 36
      7a:	bf fd       	.word	0xfdbf	; ????
      7c:	c1 2f       	mov	r28, r17
      7e:	3d 6c       	ori	r19, 0xCD	; 205
      80:	74 31       	cpi	r23, 0x14	; 20
      82:	9a bd       	out	0x2a, r25	; 42
      84:	56 83       	std	Z+6, r21	; 0x06
      86:	3d da       	rcall	.-2950   	; 0xfffff502 <__eeprom_end+0xff7ef502>
      88:	3d 00       	.word	0x003d	; ????
      8a:	c7 7f       	andi	r28, 0xF7	; 247
      8c:	11 be       	out	0x31, r1	; 49
      8e:	d9 e4       	ldi	r29, 0x49	; 73
      90:	bb 4c       	sbci	r27, 0xCB	; 203
      92:	3e 91       	ld	r19, -X
      94:	6b aa       	std	Y+51, r6	; 0x33
      96:	aa be       	out	0x3a, r10	; 58
      98:	00 00       	nop
      9a:	00 80       	ld	r0, Z
      9c:	3f 00       	.word	0x003f	; ????

0000009e <__trampolines_end>:
      9e:	00 00       	nop
      a0:	00 00       	nop
      a2:	00 5c       	subi	r16, 0xC0	; 192
      a4:	00 00       	nop
      a6:	0c 00       	.word	0x000c	; ????
      a8:	0c 00       	.word	0x000c	; ????
      aa:	7c 28       	or	r7, r12
      ac:	7c 28       	or	r7, r12
      ae:	58 dc       	rcall	.-1872   	; 0xfffff960 <__eeprom_end+0xff7ef960>
      b0:	68 00       	.word	0x0068	; ????
      b2:	24 10       	cpse	r2, r4
      b4:	48 00       	.word	0x0048	; ????
      b6:	28 54       	subi	r18, 0x48	; 72
      b8:	28 40       	sbci	r18, 0x08	; 8
      ba:	00 0c       	add	r0, r0
      bc:	00 00       	nop
      be:	00 78       	andi	r16, 0x80	; 128
      c0:	84 00       	.word	0x0084	; ????
      c2:	84 78       	andi	r24, 0x84	; 132
      c4:	00 00       	nop
      c6:	54 38       	cpi	r21, 0x84	; 132
      c8:	54 00       	.word	0x0054	; ????
      ca:	10 7c       	andi	r17, 0xC0	; 192
      cc:	10 00       	.word	0x0010	; ????
      ce:	80 40       	sbci	r24, 0x00	; 0
      d0:	00 00       	nop
      d2:	10 10       	cpse	r1, r0
      d4:	10 00       	.word	0x0010	; ????
      d6:	00 40       	sbci	r16, 0x00	; 0
      d8:	00 00       	nop
      da:	60 10       	cpse	r6, r0
      dc:	0c 00       	.word	0x000c	; ????
      de:	38 54       	subi	r19, 0x48	; 72
      e0:	38 00       	.word	0x0038	; ????
      e2:	48 7c       	andi	r20, 0xC8	; 200
      e4:	40 00       	.word	0x0040	; ????
      e6:	48 64       	ori	r20, 0x48	; 72
      e8:	58 00       	.word	0x0058	; ????
      ea:	44 54       	subi	r20, 0x44	; 68
      ec:	2c 00       	.word	0x002c	; ????
      ee:	1c 10       	cpse	r1, r12
      f0:	7c 00       	.word	0x007c	; ????
      f2:	5c 54       	subi	r21, 0x4C	; 76
      f4:	24 00       	.word	0x0024	; ????
      f6:	38 54       	subi	r19, 0x48	; 72
      f8:	24 00       	.word	0x0024	; ????
      fa:	64 14       	cp	r6, r4
      fc:	0c 00       	.word	0x000c	; ????
      fe:	68 54       	subi	r22, 0x48	; 72
     100:	2c 00       	.word	0x002c	; ????
     102:	48 54       	subi	r20, 0x48	; 72
     104:	38 00       	.word	0x0038	; ????
     106:	00 48       	sbci	r16, 0x80	; 128
     108:	00 00       	nop
     10a:	80 48       	sbci	r24, 0x80	; 128
     10c:	00 00       	nop
     10e:	10 28       	or	r1, r0
     110:	44 00       	.word	0x0044	; ????
     112:	28 28       	or	r2, r8
     114:	28 00       	.word	0x0028	; ????
     116:	44 28       	or	r4, r4
     118:	10 00       	.word	0x0010	; ????
     11a:	04 54       	subi	r16, 0x44	; 68
     11c:	08 00       	.word	0x0008	; ????
     11e:	38 44       	sbci	r19, 0x48	; 72
     120:	5c 00       	.word	0x005c	; ????
     122:	78 14       	cp	r7, r8
     124:	78 00       	.word	0x0078	; ????
     126:	7c 54       	subi	r23, 0x4C	; 76
     128:	28 00       	.word	0x0028	; ????
     12a:	38 44       	sbci	r19, 0x48	; 72
     12c:	28 00       	.word	0x0028	; ????
     12e:	7c 44       	sbci	r23, 0x4C	; 76
     130:	38 00       	.word	0x0038	; ????
     132:	7c 54       	subi	r23, 0x4C	; 76
     134:	44 00       	.word	0x0044	; ????
     136:	7c 14       	cp	r7, r12
     138:	04 00       	.word	0x0004	; ????
     13a:	38 44       	sbci	r19, 0x48	; 72
     13c:	74 00       	.word	0x0074	; ????
     13e:	7c 10       	cpse	r7, r12
     140:	7c 00       	.word	0x007c	; ????
     142:	44 7c       	andi	r20, 0xC4	; 196
     144:	44 00       	.word	0x0044	; ????
     146:	20 40       	sbci	r18, 0x00	; 0
     148:	3c 00       	.word	0x003c	; ????
     14a:	7c 10       	cpse	r7, r12
     14c:	6c 00       	.word	0x006c	; ????
     14e:	7c 40       	sbci	r23, 0x0C	; 12
     150:	40 00       	.word	0x0040	; ????
     152:	7c 18       	sub	r7, r12
     154:	7c 00       	.word	0x007c	; ????
     156:	78 10       	cpse	r7, r8
     158:	3c 00       	.word	0x003c	; ????
     15a:	38 44       	sbci	r19, 0x48	; 72
     15c:	38 00       	.word	0x0038	; ????
     15e:	7c 14       	cp	r7, r12
     160:	08 00       	.word	0x0008	; ????
     162:	38 44       	sbci	r19, 0x48	; 72
     164:	b8 00       	.word	0x00b8	; ????
     166:	7c 14       	cp	r7, r12
     168:	68 00       	.word	0x0068	; ????
     16a:	48 54       	subi	r20, 0x48	; 72
     16c:	24 00       	.word	0x0024	; ????
     16e:	04 7c       	andi	r16, 0xC4	; 196
     170:	04 00       	.word	0x0004	; ????
     172:	7c 40       	sbci	r23, 0x0C	; 12
     174:	7c 00       	.word	0x007c	; ????
     176:	3c 60       	ori	r19, 0x0C	; 12
     178:	3c 00       	.word	0x003c	; ????
     17a:	7c 30       	cpi	r23, 0x0C	; 12
     17c:	7c 00       	.word	0x007c	; ????
     17e:	6c 10       	cpse	r6, r12
     180:	6c 00       	.word	0x006c	; ????
     182:	0c 70       	andi	r16, 0x0C	; 12
     184:	0c 00       	.word	0x000c	; ????
     186:	64 54       	subi	r22, 0x44	; 68
     188:	4c 00       	.word	0x004c	; ????
     18a:	00 7c       	andi	r16, 0xC0	; 192
     18c:	44 00       	.word	0x0044	; ????
     18e:	0c 10       	cpse	r0, r12
     190:	60 00       	.word	0x0060	; ????
     192:	44 7c       	andi	r20, 0xC4	; 196
     194:	00 00       	nop
     196:	08 04       	cpc	r0, r8
     198:	08 00       	.word	0x0008	; ????
     19a:	80 80       	ld	r8, Z
     19c:	80 00       	.word	0x0080	; ????
     19e:	00 04       	cpc	r0, r0
     1a0:	08 00       	.word	0x0008	; ????
     1a2:	30 48       	sbci	r19, 0x80	; 128
     1a4:	78 00       	.word	0x0078	; ????
     1a6:	7c 48       	sbci	r23, 0x8C	; 140
     1a8:	30 00       	.word	0x0030	; ????
     1aa:	30 48       	sbci	r19, 0x80	; 128
     1ac:	48 00       	.word	0x0048	; ????
     1ae:	30 48       	sbci	r19, 0x80	; 128
     1b0:	7c 00       	.word	0x007c	; ????
     1b2:	30 68       	ori	r19, 0x80	; 128
     1b4:	50 00       	.word	0x0050	; ????
     1b6:	10 78       	andi	r17, 0x80	; 128
     1b8:	14 00       	.word	0x0014	; ????
     1ba:	90 a8       	ldd	r9, Z+48	; 0x30
     1bc:	78 00       	.word	0x0078	; ????
     1be:	7c 08       	sbc	r7, r12
     1c0:	70 00       	.word	0x0070	; ????
     1c2:	50 74       	andi	r21, 0x40	; 64
     1c4:	40 00       	.word	0x0040	; ????
     1c6:	80 80       	ld	r8, Z
     1c8:	74 00       	.word	0x0074	; ????
     1ca:	7c 10       	cpse	r7, r12
     1cc:	68 00       	.word	0x0068	; ????
     1ce:	44 7c       	andi	r20, 0xC4	; 196
     1d0:	40 00       	.word	0x0040	; ????
     1d2:	78 10       	cpse	r7, r8
     1d4:	78 00       	.word	0x0078	; ????
     1d6:	78 08       	sbc	r7, r8
     1d8:	70 00       	.word	0x0070	; ????
     1da:	30 48       	sbci	r19, 0x80	; 128
     1dc:	30 00       	.word	0x0030	; ????
     1de:	f8 28       	or	r15, r8
     1e0:	10 00       	.word	0x0010	; ????
     1e2:	30 48       	sbci	r19, 0x80	; 128
     1e4:	f8 00       	.word	0x00f8	; ????
     1e6:	78 10       	cpse	r7, r8
     1e8:	08 00       	.word	0x0008	; ????
     1ea:	50 58       	subi	r21, 0x80	; 128
     1ec:	28 00       	.word	0x0028	; ????
     1ee:	08 3c       	cpi	r16, 0xC8	; 200
     1f0:	48 00       	.word	0x0048	; ????
     1f2:	38 40       	sbci	r19, 0x08	; 8
     1f4:	78 00       	.word	0x0078	; ????
     1f6:	38 40       	sbci	r19, 0x08	; 8
     1f8:	38 00       	.word	0x0038	; ????
     1fa:	78 20       	and	r7, r8
     1fc:	78 00       	.word	0x0078	; ????
     1fe:	48 30       	cpi	r20, 0x08	; 8
     200:	48 00       	.word	0x0048	; ????
     202:	98 a0       	ldd	r9, Y+32	; 0x20
     204:	78 00       	.word	0x0078	; ????
     206:	48 68       	ori	r20, 0x88	; 136
     208:	58 00       	.word	0x0058	; ????
     20a:	10 78       	andi	r17, 0x80	; 128
     20c:	84 00       	.word	0x0084	; ????
     20e:	00 7c       	andi	r16, 0xC0	; 192
     210:	00 00       	nop
     212:	84 78       	andi	r24, 0x84	; 132
     214:	10 00       	.word	0x0010	; ????
     216:	08 04       	cpc	r0, r8
     218:	08 04       	cpc	r0, r8

0000021a <font5>:
     21a:	00 00 00 00 00 00 00 5f 00 00 00 07 00 07 00 14     ......._........
     22a:	7f 14 7f 14 24 2a 7f 2a 12 23 13 08 64 62 36 49     ....$*.*.#..db6I
     23a:	55 22 50 00 05 03 00 00 00 1c 22 41 00 00 41 22     U"P......."A..A"
     24a:	1c 00 08 2a 1c 2a 08 08 08 3e 08 08 00 50 30 00     ...*.*...>...P0.
     25a:	00 08 08 08 08 08 00 60 60 00 00 20 10 08 04 02     .......``.. ....
     26a:	3e 51 49 45 3e 00 42 7f 40 00 42 61 51 49 46 21     >QIE>.B.@.BaQIF!
     27a:	41 45 4b 31 18 14 12 7f 10 27 45 45 45 39 3c 4a     AEK1.....'EEE9<J
     28a:	49 49 30 01 71 09 05 03 36 49 49 49 36 06 49 49     II0.q...6III6.II
     29a:	29 1e 00 36 36 00 00 00 56 36 00 00 00 08 14 22     )..66...V6....."
     2aa:	41 14 14 14 14 14 41 22 14 08 00 02 01 51 09 06     A.....A".....Q..
     2ba:	32 49 79 41 3e 7e 11 11 11 7e 7f 49 49 49 36 3e     2IyA>~...~.III6>
     2ca:	41 41 41 22 7f 41 41 22 1c 7f 49 49 49 41 7f 09     AAA".AA"..IIIA..
     2da:	09 01 01 3e 41 41 51 32 7f 08 08 08 7f 00 41 7f     ...>AAQ2......A.
     2ea:	41 00 20 40 41 3f 01 7f 08 14 22 41 7f 40 40 40     A. @A?...."A.@@@
     2fa:	40 7f 02 04 02 7f 7f 04 08 10 7f 3e 41 41 41 3e     @..........>AAA>
     30a:	7f 09 09 09 06 3e 41 51 21 5e 7f 09 19 29 46 46     .....>AQ!^...)FF
     31a:	49 49 49 31 01 01 7f 01 01 3f 40 40 40 3f 1f 20     III1.....?@@@?. 
     32a:	40 20 1f 7f 20 18 20 7f 63 14 08 14 63 03 04 78     @ .. . .c...c..x
     33a:	04 03 61 51 49 45 43 00 00 7f 41 41 02 04 08 10     ..aQIEC...AA....
     34a:	20 41 41 7f 00 00 04 02 01 02 04 40 40 40 40 40      AA........@@@@@
     35a:	00 01 02 04 00 20 54 54 54 78 7f 48 44 44 38 38     ..... TTTx.HDD88
     36a:	44 44 44 20 38 44 44 48 7f 38 54 54 54 18 08 7e     DDD 8DDH.8TTT..~
     37a:	09 01 02 08 14 54 54 3c 7f 08 04 04 78 00 44 7d     .....TT<....x.D}
     38a:	40 00 20 40 44 3d 00 00 7f 10 28 44 00 41 7f 40     @. @D=....(D.A.@
     39a:	00 7c 04 18 04 78 7c 08 04 04 78 38 44 44 44 38     .|...x|...x8DDD8
     3aa:	7c 14 14 14 08 08 14 14 18 7c 7c 08 04 04 08 48     |........||....H
     3ba:	54 54 54 20 04 3f 44 40 20 3c 40 40 20 7c 1c 20     TTT .?D@ <@@ |. 
     3ca:	40 20 1c 3c 40 30 40 3c 44 28 10 28 44 0c 50 50     @ .<@0@<D(.(D.PP
     3da:	50 3c 44 64 54 4c 44 00 08 36 41 00 00 00 7f 00     P<DdTLD..6A.....
     3ea:	00 00 41 36 08 00 02 01 03 02 01                    ..A6.......

000003f5 <font8>:
	...
     3fd:	00 06 5f 5f 06 00 00 00 00 07 07 00 07 07 00 00     ..__............
     40d:	14 7f 7f 14 7f 7f 14 00 24 2e 6b 6b 3a 12 00 00     ........$.kk:...
     41d:	46 66 30 18 0c 66 62 00 30 7a 4f 5d 37 7a 48 00     Ff0..fb.0zO]7zH.
     42d:	04 07 03 00 00 00 00 00 00 1c 3e 63 41 00 00 00     ..........>cA...
     43d:	00 41 63 3e 1c 00 00 00 08 2a 3e 1c 1c 3e 2a 08     .Ac>.....*>..>*.
     44d:	08 08 3e 3e 08 08 00 00 00 a0 e0 60 00 00 00 00     ..>>.......`....
     45d:	08 08 08 08 08 08 00 00 00 00 60 60 00 00 00 00     ..........``....
     46d:	60 30 18 0c 06 03 01 00 3e 7f 59 4d 7f 3e 00 00     `0......>.YM.>..
     47d:	42 42 7f 7f 40 40 00 00 62 73 59 49 6f 66 00 00     BB..@@..bsYIof..
     48d:	22 63 49 49 7f 36 00 00 18 1c 16 13 7f 7f 10 00     "cII.6..........
     49d:	27 67 45 45 7d 39 00 00 3c 7e 4b 49 79 30 00 00     'gEE}9..<~KIy0..
     4ad:	03 63 71 19 0f 07 00 00 36 7f 49 49 7f 36 00 00     .cq.....6.II.6..
     4bd:	06 4f 49 69 3f 1e 00 00 00 00 6c 6c 00 00 00 00     .OIi?.....ll....
     4cd:	00 a0 ec 6c 00 00 00 00 08 1c 36 63 41 00 00 00     ...l......6cA...
     4dd:	14 14 14 14 14 14 00 00 00 41 63 36 1c 08 00 00     .........Ac6....
     4ed:	02 03 51 59 0f 06 00 00 3e 7f 41 5d 5d 1f 1e 00     ..QY....>.A]]...
     4fd:	7c 7e 13 13 7e 7c 00 00 41 7f 7f 49 49 7f 36 00     |~..~|..A..II.6.
     50d:	1c 3e 63 41 41 63 22 00 41 7f 7f 41 63 7f 1c 00     .>cAAc".A..Ac...
     51d:	41 7f 7f 49 5d 41 63 00 41 7f 7f 49 1d 01 03 00     A..I]Ac.A..I....
     52d:	1c 3e 63 41 51 73 72 00 7f 7f 08 08 7f 7f 00 00     .>cAQsr.........
     53d:	00 41 7f 7f 41 00 00 00 30 70 40 41 7f 3f 01 00     .A..A...0p@A.?..
     54d:	41 7f 7f 08 1c 77 63 00 41 7f 7f 41 40 60 70 00     A....wc.A..A@`p.
     55d:	7f 7f 06 0c 06 7f 7f 00 7f 7f 06 0c 18 7f 7f 00     ................
     56d:	1c 3e 63 41 63 3e 1c 00 41 7f 7f 49 09 0f 06 00     .>cAc>..A..I....
     57d:	1e 3f 21 71 7f 5e 00 00 41 7f 7f 19 39 6f 46 00     .?!q.^..A...9oF.
     58d:	26 67 4d 59 7b 32 00 00 03 41 7f 7f 41 03 00 00     &gMY{2...A..A...
     59d:	7f 7f 40 40 7f 7f 00 00 1f 3f 60 60 3f 1f 00 00     ..@@.....?``?...
     5ad:	7f 7f 30 18 30 7f 7f 00 63 77 1c 08 1c 77 63 00     ..0.0...cw...wc.
     5bd:	07 4f 78 78 4f 07 00 00 67 73 59 4d 47 63 71 00     .OxxO...gsYMGcq.
     5cd:	00 7f 7f 41 41 00 00 00 01 03 06 0c 18 30 60 00     ...AA........0`.
     5dd:	00 41 41 7f 7f 00 00 00 08 0c 06 03 06 0c 08 00     .AA.............
     5ed:	80 80 80 80 80 80 80 80 00 00 03 07 04 00 00 00     ................
     5fd:	20 74 54 54 3c 78 40 00 41 3f 7f 44 44 7c 38 00      tTT<x@.A?.DD|8.
     60d:	38 7c 44 44 6c 28 00 00 30 78 48 49 3f 7f 40 00     8|DDl(..0xHI?.@.
     61d:	38 7c 54 54 5c 18 00 00 48 7e 7f 49 03 02 00 00     8|TT\...H~.I....
     62d:	98 bc a4 a4 f8 7c 04 00 41 7f 7f 08 04 7c 78 00     .....|..A....|x.
     63d:	00 44 7d 7d 40 00 00 00 40 c4 84 fd 7d 00 00 00     .D}}@...@...}...
     64d:	41 7f 7f 10 38 6c 44 00 00 41 7f 7f 40 00 00 00     A...8lD..A..@...
     65d:	7c 7c 0c 18 0c 7c 78 00 7c 7c 04 04 7c 78 00 00     ||...|x.||..|x..
     66d:	38 7c 44 44 7c 38 00 00 84 fc f8 a4 24 3c 18 00     8|DD|8......$<..
     67d:	18 3c 24 a4 f8 fc 84 00 44 7c 78 44 1c 18 00 00     .<$.....D|xD....
     68d:	48 5c 54 54 74 24 00 00 00 04 3e 7f 44 24 00 00     H\TTt$....>.D$..
     69d:	3c 7c 40 40 3c 7c 40 00 1c 3c 60 60 3c 1c 00 00     <|@@<|@..<``<...
     6ad:	3c 7c 60 30 60 7c 3c 00 44 6c 38 10 38 6c 44 00     <|`0`|<.Dl8.8lD.
     6bd:	9c bc a0 a0 fc 7c 00 00 4c 64 74 5c 4c 64 00 00     .....|..Ldt\Ld..
     6cd:	08 08 3e 77 41 41 00 00 00 00 00 77 77 00 00 00     ..>wAA.....ww...
     6dd:	41 41 77 3e 08 08 00 00 02 03 01 03 02 03 01 00     AAw>............
	...

000006ee <__ctors_end>:
     6ee:	11 24       	eor	r1, r1
     6f0:	1f be       	out	0x3f, r1	; 63
     6f2:	cf ef       	ldi	r28, 0xFF	; 255
     6f4:	d4 e0       	ldi	r29, 0x04	; 4
     6f6:	de bf       	out	0x3e, r29	; 62
     6f8:	cd bf       	out	0x3d, r28	; 61

000006fa <__do_copy_data>:
     6fa:	12 e0       	ldi	r17, 0x02	; 2
     6fc:	a0 e0       	ldi	r26, 0x00	; 0
     6fe:	b1 e0       	ldi	r27, 0x01	; 1
     700:	ec e6       	ldi	r30, 0x6C	; 108
     702:	f8 e2       	ldi	r31, 0x28	; 40
     704:	02 c0       	rjmp	.+4      	; 0x70a <__do_copy_data+0x10>
     706:	05 90       	lpm	r0, Z+
     708:	0d 92       	st	X+, r0
     70a:	a2 37       	cpi	r26, 0x72	; 114
     70c:	b1 07       	cpc	r27, r17
     70e:	d9 f7       	brne	.-10     	; 0x706 <__do_copy_data+0xc>

00000710 <__do_clear_bss>:
     710:	22 e0       	ldi	r18, 0x02	; 2
     712:	a2 e7       	ldi	r26, 0x72	; 114
     714:	b2 e0       	ldi	r27, 0x02	; 2
     716:	01 c0       	rjmp	.+2      	; 0x71a <.do_clear_bss_start>

00000718 <.do_clear_bss_loop>:
     718:	1d 92       	st	X+, r1

0000071a <.do_clear_bss_start>:
     71a:	ac 38       	cpi	r26, 0x8C	; 140
     71c:	b2 07       	cpc	r27, r18
     71e:	e1 f7       	brne	.-8      	; 0x718 <.do_clear_bss_loop>
     720:	0e 94 e0 04 	call	0x9c0	; 0x9c0 <main>
     724:	0c 94 34 14 	jmp	0x2868	; 0x2868 <_exit>

00000728 <__bad_interrupt>:
     728:	0c 94 00 00 	jmp	0	; 0x0 <__vectors>

0000072c <adc_init>:
     72c:	30 98       	cbi	0x06, 0	; 6
     72e:	08 95       	ret

00000730 <adc_read>:
     730:	88 37       	cpi	r24, 0x78	; 120
     732:	21 f4       	brne	.+8      	; 0x73c <adc_read+0xc>
     734:	84 e0       	ldi	r24, 0x04	; 4
     736:	80 93 00 14 	sts	0x1400, r24
     73a:	11 c0       	rjmp	.+34     	; 0x75e <adc_read+0x2e>
     73c:	89 37       	cpi	r24, 0x79	; 121
     73e:	21 f4       	brne	.+8      	; 0x748 <adc_read+0x18>
     740:	85 e0       	ldi	r24, 0x05	; 5
     742:	80 93 00 14 	sts	0x1400, r24
     746:	0b c0       	rjmp	.+22     	; 0x75e <adc_read+0x2e>
     748:	8c 36       	cpi	r24, 0x6C	; 108
     74a:	21 f4       	brne	.+8      	; 0x754 <adc_read+0x24>
     74c:	86 e0       	ldi	r24, 0x06	; 6
     74e:	80 93 00 14 	sts	0x1400, r24
     752:	05 c0       	rjmp	.+10     	; 0x75e <adc_read+0x2e>
     754:	82 37       	cpi	r24, 0x72	; 114
     756:	19 f4       	brne	.+6      	; 0x75e <adc_read+0x2e>
     758:	87 e0       	ldi	r24, 0x07	; 7
     75a:	80 93 00 14 	sts	0x1400, r24
     75e:	28 99       	sbic	0x05, 0	; 5
     760:	fe cf       	rjmp	.-4      	; 0x75e <adc_read+0x2e>
     762:	80 91 00 14 	lds	r24, 0x1400
     766:	08 95       	ret

00000768 <can_init>:




	//Sets operation mode 
	mcp_bit_modify(0x0F, 0b00000111, mode);	
     768:	48 2f       	mov	r20, r24
     76a:	67 e0       	ldi	r22, 0x07	; 7
     76c:	8f e0       	ldi	r24, 0x0F	; 15
     76e:	0e 94 c8 05 	call	0xb90	; 0xb90 <mcp_bit_modify>
     772:	08 95       	ret

00000774 <joy_get_position>:
     774:	cf 93       	push	r28
     776:	df 93       	push	r29
     778:	00 d0       	rcall	.+0      	; 0x77a <joy_get_position+0x6>
     77a:	00 d0       	rcall	.+0      	; 0x77c <joy_get_position+0x8>
     77c:	00 d0       	rcall	.+0      	; 0x77e <joy_get_position+0xa>
     77e:	cd b7       	in	r28, 0x3d	; 61
     780:	de b7       	in	r29, 0x3e	; 62
     782:	88 e7       	ldi	r24, 0x78	; 120
     784:	0e 94 98 03 	call	0x730	; 0x730 <adc_read>
     788:	90 e0       	ldi	r25, 0x00	; 0
     78a:	90 93 7b 02 	sts	0x027B, r25
     78e:	80 93 7a 02 	sts	0x027A, r24
     792:	89 e7       	ldi	r24, 0x79	; 121
     794:	0e 94 98 03 	call	0x730	; 0x730 <adc_read>
     798:	e8 2f       	mov	r30, r24
     79a:	f0 e0       	ldi	r31, 0x00	; 0
     79c:	80 91 7a 02 	lds	r24, 0x027A
     7a0:	90 91 7b 02 	lds	r25, 0x027B
     7a4:	20 91 7c 02 	lds	r18, 0x027C
     7a8:	30 91 7d 02 	lds	r19, 0x027D
     7ac:	28 17       	cp	r18, r24
     7ae:	39 07       	cpc	r19, r25
     7b0:	b4 f4       	brge	.+44     	; 0x7de <joy_get_position+0x6a>
     7b2:	ac 01       	movw	r20, r24
     7b4:	42 1b       	sub	r20, r18
     7b6:	53 0b       	sbc	r21, r19
     7b8:	64 e6       	ldi	r22, 0x64	; 100
     7ba:	64 9f       	mul	r22, r20
     7bc:	c0 01       	movw	r24, r0
     7be:	65 9f       	mul	r22, r21
     7c0:	90 0d       	add	r25, r0
     7c2:	11 24       	eor	r1, r1
     7c4:	60 91 74 02 	lds	r22, 0x0274
     7c8:	70 91 75 02 	lds	r23, 0x0275
     7cc:	62 1b       	sub	r22, r18
     7ce:	73 0b       	sbc	r23, r19
     7d0:	0e 94 73 0e 	call	0x1ce6	; 0x1ce6 <__divmodhi4>
     7d4:	70 93 7b 02 	sts	0x027B, r23
     7d8:	60 93 7a 02 	sts	0x027A, r22
     7dc:	16 c0       	rjmp	.+44     	; 0x80a <joy_get_position+0x96>
     7de:	ac 01       	movw	r20, r24
     7e0:	42 1b       	sub	r20, r18
     7e2:	53 0b       	sbc	r21, r19
     7e4:	64 e6       	ldi	r22, 0x64	; 100
     7e6:	64 9f       	mul	r22, r20
     7e8:	c0 01       	movw	r24, r0
     7ea:	65 9f       	mul	r22, r21
     7ec:	90 0d       	add	r25, r0
     7ee:	11 24       	eor	r1, r1
     7f0:	40 91 08 01 	lds	r20, 0x0108
     7f4:	50 91 09 01 	lds	r21, 0x0109
     7f8:	b9 01       	movw	r22, r18
     7fa:	64 1b       	sub	r22, r20
     7fc:	75 0b       	sbc	r23, r21
     7fe:	0e 94 73 0e 	call	0x1ce6	; 0x1ce6 <__divmodhi4>
     802:	70 93 7b 02 	sts	0x027B, r23
     806:	60 93 7a 02 	sts	0x027A, r22
     80a:	60 91 80 02 	lds	r22, 0x0280
     80e:	70 91 81 02 	lds	r23, 0x0281
     812:	6e 17       	cp	r22, r30
     814:	7f 07       	cpc	r23, r31
     816:	bc f4       	brge	.+46     	; 0x846 <joy_get_position+0xd2>
     818:	e6 1b       	sub	r30, r22
     81a:	f7 0b       	sbc	r31, r23
     81c:	24 e6       	ldi	r18, 0x64	; 100
     81e:	2e 9f       	mul	r18, r30
     820:	c0 01       	movw	r24, r0
     822:	2f 9f       	mul	r18, r31
     824:	90 0d       	add	r25, r0
     826:	11 24       	eor	r1, r1
     828:	20 91 72 02 	lds	r18, 0x0272
     82c:	30 91 73 02 	lds	r19, 0x0273
     830:	a9 01       	movw	r20, r18
     832:	46 1b       	sub	r20, r22
     834:	57 0b       	sbc	r21, r23
     836:	ba 01       	movw	r22, r20
     838:	0e 94 73 0e 	call	0x1ce6	; 0x1ce6 <__divmodhi4>
     83c:	70 93 7f 02 	sts	0x027F, r23
     840:	60 93 7e 02 	sts	0x027E, r22
     844:	14 c0       	rjmp	.+40     	; 0x86e <joy_get_position+0xfa>
     846:	e6 1b       	sub	r30, r22
     848:	f7 0b       	sbc	r31, r23
     84a:	24 e6       	ldi	r18, 0x64	; 100
     84c:	2e 9f       	mul	r18, r30
     84e:	c0 01       	movw	r24, r0
     850:	2f 9f       	mul	r18, r31
     852:	90 0d       	add	r25, r0
     854:	11 24       	eor	r1, r1
     856:	20 91 06 01 	lds	r18, 0x0106
     85a:	30 91 07 01 	lds	r19, 0x0107
     85e:	62 1b       	sub	r22, r18
     860:	73 0b       	sbc	r23, r19
     862:	0e 94 73 0e 	call	0x1ce6	; 0x1ce6 <__divmodhi4>
     866:	70 93 7f 02 	sts	0x027F, r23
     86a:	60 93 7e 02 	sts	0x027E, r22
     86e:	40 91 7e 02 	lds	r20, 0x027E
     872:	80 91 7f 02 	lds	r24, 0x027F
     876:	66 b3       	in	r22, 0x16	; 22
     878:	20 91 7a 02 	lds	r18, 0x027A
     87c:	90 91 7b 02 	lds	r25, 0x027B
     880:	29 83       	std	Y+1, r18	; 0x01
     882:	9a 83       	std	Y+2, r25	; 0x02
     884:	4b 83       	std	Y+3, r20	; 0x03
     886:	8c 83       	std	Y+4, r24	; 0x04
     888:	66 95       	lsr	r22
     88a:	66 95       	lsr	r22
     88c:	81 e0       	ldi	r24, 0x01	; 1
     88e:	68 27       	eor	r22, r24
     890:	61 70       	andi	r22, 0x01	; 1
     892:	6d 83       	std	Y+5, r22	; 0x05
     894:	1e 82       	std	Y+6, r1	; 0x06
     896:	39 2f       	mov	r19, r25
     898:	5c 81       	ldd	r21, Y+4	; 0x04
     89a:	70 e0       	ldi	r23, 0x00	; 0
     89c:	80 e0       	ldi	r24, 0x00	; 0
     89e:	90 e0       	ldi	r25, 0x00	; 0
     8a0:	26 96       	adiw	r28, 0x06	; 6
     8a2:	0f b6       	in	r0, 0x3f	; 63
     8a4:	f8 94       	cli
     8a6:	de bf       	out	0x3e, r29	; 62
     8a8:	0f be       	out	0x3f, r0	; 63
     8aa:	cd bf       	out	0x3d, r28	; 61
     8ac:	df 91       	pop	r29
     8ae:	cf 91       	pop	r28
     8b0:	08 95       	ret

000008b2 <joy_get_position_polar>:
     8b2:	8f 92       	push	r8
     8b4:	9f 92       	push	r9
     8b6:	af 92       	push	r10
     8b8:	bf 92       	push	r11
     8ba:	cf 92       	push	r12
     8bc:	df 92       	push	r13
     8be:	ef 92       	push	r14
     8c0:	ff 92       	push	r15
     8c2:	cf 93       	push	r28
     8c4:	df 93       	push	r29
     8c6:	00 d0       	rcall	.+0      	; 0x8c8 <joy_get_position_polar+0x16>
     8c8:	00 d0       	rcall	.+0      	; 0x8ca <joy_get_position_polar+0x18>
     8ca:	00 d0       	rcall	.+0      	; 0x8cc <joy_get_position_polar+0x1a>
     8cc:	cd b7       	in	r28, 0x3d	; 61
     8ce:	de b7       	in	r29, 0x3e	; 62
     8d0:	0e 94 ba 03 	call	0x774	; 0x774 <joy_get_position>
     8d4:	29 83       	std	Y+1, r18	; 0x01
     8d6:	3a 83       	std	Y+2, r19	; 0x02
     8d8:	4b 83       	std	Y+3, r20	; 0x03
     8da:	5c 83       	std	Y+4, r21	; 0x04
     8dc:	89 80       	ldd	r8, Y+1	; 0x01
     8de:	9a 80       	ldd	r9, Y+2	; 0x02
     8e0:	ab 80       	ldd	r10, Y+3	; 0x03
     8e2:	bc 80       	ldd	r11, Y+4	; 0x04
     8e4:	b4 01       	movw	r22, r8
     8e6:	88 27       	eor	r24, r24
     8e8:	77 fd       	sbrc	r23, 7
     8ea:	80 95       	com	r24
     8ec:	98 2f       	mov	r25, r24
     8ee:	0e 94 97 0c 	call	0x192e	; 0x192e <__floatsisf>
     8f2:	6b 01       	movw	r12, r22
     8f4:	7c 01       	movw	r14, r24
     8f6:	b5 01       	movw	r22, r10
     8f8:	88 27       	eor	r24, r24
     8fa:	77 fd       	sbrc	r23, 7
     8fc:	80 95       	com	r24
     8fe:	98 2f       	mov	r25, r24
     900:	0e 94 97 0c 	call	0x192e	; 0x192e <__floatsisf>
     904:	a7 01       	movw	r20, r14
     906:	96 01       	movw	r18, r12
     908:	0e 94 ab 0b 	call	0x1756	; 0x1756 <atan2>
     90c:	6b 01       	movw	r12, r22
     90e:	7c 01       	movw	r14, r24
     910:	88 9c       	mul	r8, r8
     912:	b0 01       	movw	r22, r0
     914:	89 9c       	mul	r8, r9
     916:	70 0d       	add	r23, r0
     918:	70 0d       	add	r23, r0
     91a:	11 24       	eor	r1, r1
     91c:	aa 9c       	mul	r10, r10
     91e:	c0 01       	movw	r24, r0
     920:	ab 9c       	mul	r10, r11
     922:	90 0d       	add	r25, r0
     924:	90 0d       	add	r25, r0
     926:	11 24       	eor	r1, r1
     928:	68 0f       	add	r22, r24
     92a:	79 1f       	adc	r23, r25
     92c:	80 e0       	ldi	r24, 0x00	; 0
     92e:	90 e0       	ldi	r25, 0x00	; 0
     930:	0e 94 95 0c 	call	0x192a	; 0x192a <__floatunsisf>
     934:	0e 94 b6 0d 	call	0x1b6c	; 0x1b6c <sqrt>
     938:	4b 01       	movw	r8, r22
     93a:	5c 01       	movw	r10, r24
     93c:	20 ee       	ldi	r18, 0xE0	; 224
     93e:	3e e2       	ldi	r19, 0x2E	; 46
     940:	45 e6       	ldi	r20, 0x65	; 101
     942:	52 e4       	ldi	r21, 0x42	; 66
     944:	c7 01       	movw	r24, r14
     946:	b6 01       	movw	r22, r12
     948:	0e 94 4f 0d 	call	0x1a9e	; 0x1a9e <__mulsf3>
     94c:	0e 94 64 0c 	call	0x18c8	; 0x18c8 <__fixsfsi>
     950:	6b 01       	movw	r12, r22
     952:	c5 01       	movw	r24, r10
     954:	b4 01       	movw	r22, r8
     956:	0e 94 64 0c 	call	0x18c8	; 0x18c8 <__fixsfsi>
     95a:	7b 01       	movw	r14, r22
     95c:	c7 01       	movw	r24, r14
     95e:	b6 01       	movw	r22, r12
     960:	26 96       	adiw	r28, 0x06	; 6
     962:	0f b6       	in	r0, 0x3f	; 63
     964:	f8 94       	cli
     966:	de bf       	out	0x3e, r29	; 62
     968:	0f be       	out	0x3f, r0	; 63
     96a:	cd bf       	out	0x3d, r28	; 61
     96c:	df 91       	pop	r29
     96e:	cf 91       	pop	r28
     970:	ff 90       	pop	r15
     972:	ef 90       	pop	r14
     974:	df 90       	pop	r13
     976:	cf 90       	pop	r12
     978:	bf 90       	pop	r11
     97a:	af 90       	pop	r10
     97c:	9f 90       	pop	r9
     97e:	8f 90       	pop	r8
     980:	08 95       	ret

00000982 <joy_get_direction>:
     982:	0e 94 59 04 	call	0x8b2	; 0x8b2 <joy_get_position_polar>
     986:	9b 01       	movw	r18, r22
     988:	81 35       	cpi	r24, 0x51	; 81
     98a:	91 05       	cpc	r25, r1
     98c:	7c f0       	brlt	.+30     	; 0x9ac <joy_get_direction+0x2a>
     98e:	68 38       	cpi	r22, 0x88	; 136
     990:	71 05       	cpc	r23, r1
     992:	74 f4       	brge	.+28     	; 0x9b0 <joy_get_direction+0x2e>
     994:	6e 32       	cpi	r22, 0x2E	; 46
     996:	71 05       	cpc	r23, r1
     998:	6c f4       	brge	.+26     	; 0x9b4 <joy_get_direction+0x32>
     99a:	24 3d       	cpi	r18, 0xD4	; 212
     99c:	8f ef       	ldi	r24, 0xFF	; 255
     99e:	38 07       	cpc	r19, r24
     9a0:	5c f4       	brge	.+22     	; 0x9b8 <joy_get_direction+0x36>
     9a2:	2a 37       	cpi	r18, 0x7A	; 122
     9a4:	3f 4f       	sbci	r19, 0xFF	; 255
     9a6:	54 f0       	brlt	.+20     	; 0x9bc <joy_get_direction+0x3a>
     9a8:	83 e0       	ldi	r24, 0x03	; 3
     9aa:	08 95       	ret
     9ac:	8f ef       	ldi	r24, 0xFF	; 255
     9ae:	08 95       	ret
     9b0:	82 e0       	ldi	r24, 0x02	; 2
     9b2:	08 95       	ret
     9b4:	81 e0       	ldi	r24, 0x01	; 1
     9b6:	08 95       	ret
     9b8:	80 e0       	ldi	r24, 0x00	; 0
     9ba:	08 95       	ret
     9bc:	82 e0       	ldi	r24, 0x02	; 2
     9be:	08 95       	ret

000009c0 <main>:
*/

//1 output, 0 input

int main(void)
{
     9c0:	cf 93       	push	r28
     9c2:	df 93       	push	r29
     9c4:	cd b7       	in	r28, 0x3d	; 61
     9c6:	de b7       	in	r29, 0x3e	; 62
     9c8:	2d 97       	sbiw	r28, 0x0d	; 13
     9ca:	0f b6       	in	r0, 0x3f	; 63
     9cc:	f8 94       	cli
     9ce:	de bf       	out	0x3e, r29	; 62
     9d0:	0f be       	out	0x3f, r0	; 63
     9d2:	cd bf       	out	0x3d, r28	; 61
	MCUCR |= (1<<SRE);		//Enable external memory
     9d4:	85 b7       	in	r24, 0x35	; 53
     9d6:	80 68       	ori	r24, 0x80	; 128
     9d8:	85 bf       	out	0x35, r24	; 53
	SFIOR |= (1<<XMM2);
     9da:	80 b7       	in	r24, 0x30	; 48
     9dc:	80 62       	ori	r24, 0x20	; 32
     9de:	80 bf       	out	0x30, r24	; 48
	
	//Initialization
	uart_init(9600);
     9e0:	80 e8       	ldi	r24, 0x80	; 128
     9e2:	95 e2       	ldi	r25, 0x25	; 37
     9e4:	0e 94 6b 0b 	call	0x16d6	; 0x16d6 <uart_init>
	adc_init();
     9e8:	0e 94 96 03 	call	0x72c	; 0x72c <adc_init>
	oled_init();
     9ec:	0e 94 31 0a 	call	0x1462	; 0x1462 <oled_init>
	oled_print_string("Please calibrate joystick!",0,0,8,0);
     9f0:	00 e0       	ldi	r16, 0x00	; 0
     9f2:	10 e0       	ldi	r17, 0x00	; 0
     9f4:	28 e0       	ldi	r18, 0x08	; 8
     9f6:	40 e0       	ldi	r20, 0x00	; 0
     9f8:	60 e0       	ldi	r22, 0x00	; 0
     9fa:	82 e9       	ldi	r24, 0x92	; 146
     9fc:	91 e0       	ldi	r25, 0x01	; 1
     9fe:	0e 94 bb 09 	call	0x1376	; 0x1376 <oled_print_string>
	oled_refresh();
     a02:	0e 94 b7 0a 	call	0x156e	; 0x156e <oled_refresh>
	//joy_init();
	touch_init();
     a06:	0e 94 5e 0b 	call	0x16bc	; 0x16bc <touch_init>
	menu_init();
     a0a:	0e 94 39 08 	call	0x1072	; 0x1072 <menu_init>
	spi_master_init();
     a0e:	0e 94 51 0b 	call	0x16a2	; 0x16a2 <spi_master_init>
	mcp_reset(); //reset = init
     a12:	0e 94 e0 05 	call	0xbc0	; 0xbc0 <mcp_reset>
	can_init(3); //3 for loopback mode
     a16:	83 e0       	ldi	r24, 0x03	; 3
     a18:	90 e0       	ldi	r25, 0x00	; 0
     a1a:	0e 94 b4 03 	call	0x768	; 0x768 <can_init>
	
	oled_clear_screen();
     a1e:	0e 94 23 0a 	call	0x1446	; 0x1446 <oled_clear_screen>
	oled_refresh();
     a22:	0e 94 b7 0a 	call	0x156e	; 0x156e <oled_refresh>
	printf("%d",k);
	char z = (spi_master_transmit('a'));
	printf("%d",z);
	*/
	
	mcp_request_to_send(0,1,1);
     a26:	41 e0       	ldi	r20, 0x01	; 1
     a28:	50 e0       	ldi	r21, 0x00	; 0
     a2a:	61 e0       	ldi	r22, 0x01	; 1
     a2c:	70 e0       	ldi	r23, 0x00	; 0
     a2e:	80 e0       	ldi	r24, 0x00	; 0
     a30:	90 e0       	ldi	r25, 0x00	; 0
     a32:	0e 94 af 05 	call	0xb5e	; 0xb5e <mcp_request_to_send>
	printf("Read status: %d\n", mcp_read_status());
     a36:	0e 94 bf 05 	call	0xb7e	; 0xb7e <mcp_read_status>
     a3a:	1f 92       	push	r1
     a3c:	8f 93       	push	r24
     a3e:	8d ea       	ldi	r24, 0xAD	; 173
     a40:	91 e0       	ldi	r25, 0x01	; 1
     a42:	9f 93       	push	r25
     a44:	8f 93       	push	r24
     a46:	0e 94 21 11 	call	0x2242	; 0x2242 <printf>
	char STREAING[13] = "Hans er sist!";
     a4a:	8d e0       	ldi	r24, 0x0D	; 13
     a4c:	e8 e6       	ldi	r30, 0x68	; 104
     a4e:	f1 e0       	ldi	r31, 0x01	; 1
     a50:	de 01       	movw	r26, r28
     a52:	11 96       	adiw	r26, 0x01	; 1
     a54:	01 90       	ld	r0, Z+
     a56:	0d 92       	st	X+, r0
     a58:	8a 95       	dec	r24
     a5a:	e1 f7       	brne	.-8      	; 0xa54 <main+0x94>
	mcp_write(0x1, STREAING, 13);
     a5c:	4d e0       	ldi	r20, 0x0D	; 13
     a5e:	50 e0       	ldi	r21, 0x00	; 0
     a60:	be 01       	movw	r22, r28
     a62:	6f 5f       	subi	r22, 0xFF	; 255
     a64:	7f 4f       	sbci	r23, 0xFF	; 255
     a66:	81 e0       	ldi	r24, 0x01	; 1
     a68:	0e 94 8b 05 	call	0xb16	; 0xb16 <mcp_write>
	char* arr = (mcp_read(0x1,13));
     a6c:	6d e0       	ldi	r22, 0x0D	; 13
     a6e:	70 e0       	ldi	r23, 0x00	; 0
     a70:	81 e0       	ldi	r24, 0x01	; 1
     a72:	0e 94 44 05 	call	0xa88	; 0xa88 <mcp_read>
	printf("%s\n",arr);
     a76:	0e 94 35 11 	call	0x226a	; 0x226a <puts>
     a7a:	0f 90       	pop	r0
     a7c:	0f 90       	pop	r0
     a7e:	0f 90       	pop	r0
     a80:	0f 90       	pop	r0
	
	while (1)
	{
		//printf("\n");
		menu_run_display();
     a82:	0e 94 b2 08 	call	0x1164	; 0x1164 <menu_run_display>
     a86:	fd cf       	rjmp	.-6      	; 0xa82 <main+0xc2>

00000a88 <mcp_read>:
#include "spi.h"
#include <avr/io.h>

char* mcp_read(char address, int bytes){
     a88:	9f 92       	push	r9
     a8a:	af 92       	push	r10
     a8c:	bf 92       	push	r11
     a8e:	cf 92       	push	r12
     a90:	df 92       	push	r13
     a92:	ef 92       	push	r14
     a94:	ff 92       	push	r15
     a96:	0f 93       	push	r16
     a98:	1f 93       	push	r17
     a9a:	cf 93       	push	r28
     a9c:	df 93       	push	r29
     a9e:	cd b7       	in	r28, 0x3d	; 61
     aa0:	de b7       	in	r29, 0x3e	; 62
     aa2:	98 2e       	mov	r9, r24
     aa4:	7b 01       	movw	r14, r22
	{
		ret[i] = spi_master_transmit(0x00);
	}
	set_bit(PORTB,PB4);
	return ret;
}
     aa6:	ad b6       	in	r10, 0x3d	; 61
     aa8:	be b6       	in	r11, 0x3e	; 62
#include "spi.h"
#include <avr/io.h>

char* mcp_read(char address, int bytes){
	char ret[bytes];
     aaa:	8d b7       	in	r24, 0x3d	; 61
     aac:	9e b7       	in	r25, 0x3e	; 62
     aae:	86 1b       	sub	r24, r22
     ab0:	97 0b       	sbc	r25, r23
     ab2:	0f b6       	in	r0, 0x3f	; 63
     ab4:	f8 94       	cli
     ab6:	9e bf       	out	0x3e, r25	; 62
     ab8:	0f be       	out	0x3f, r0	; 63
     aba:	8d bf       	out	0x3d, r24	; 61
     abc:	ed b7       	in	r30, 0x3d	; 61
     abe:	fe b7       	in	r31, 0x3e	; 62
     ac0:	31 96       	adiw	r30, 0x01	; 1
     ac2:	6f 01       	movw	r12, r30
	clear_bit(PORTB, PB4);
     ac4:	c4 98       	cbi	0x18, 4	; 24
	spi_master_transmit(0b00000011);
     ac6:	83 e0       	ldi	r24, 0x03	; 3
     ac8:	0e 94 59 0b 	call	0x16b2	; 0x16b2 <spi_master_transmit>
	spi_master_transmit(address);
     acc:	89 2d       	mov	r24, r9
     ace:	0e 94 59 0b 	call	0x16b2	; 0x16b2 <spi_master_transmit>
	for (int i = 0; i < bytes; i++)
     ad2:	1e 14       	cp	r1, r14
     ad4:	1f 04       	cpc	r1, r15
     ad6:	64 f4       	brge	.+24     	; 0xaf0 <mcp_read+0x68>
     ad8:	86 01       	movw	r16, r12
     ada:	ec 0c       	add	r14, r12
     adc:	fd 1c       	adc	r15, r13
	{
		ret[i] = spi_master_transmit(0x00);
     ade:	80 e0       	ldi	r24, 0x00	; 0
     ae0:	0e 94 59 0b 	call	0x16b2	; 0x16b2 <spi_master_transmit>
     ae4:	f8 01       	movw	r30, r16
     ae6:	81 93       	st	Z+, r24
     ae8:	8f 01       	movw	r16, r30
char* mcp_read(char address, int bytes){
	char ret[bytes];
	clear_bit(PORTB, PB4);
	spi_master_transmit(0b00000011);
	spi_master_transmit(address);
	for (int i = 0; i < bytes; i++)
     aea:	ee 15       	cp	r30, r14
     aec:	ff 05       	cpc	r31, r15
     aee:	b9 f7       	brne	.-18     	; 0xade <mcp_read+0x56>
	{
		ret[i] = spi_master_transmit(0x00);
	}
	set_bit(PORTB,PB4);
     af0:	c4 9a       	sbi	0x18, 4	; 24
	return ret;
}
     af2:	c6 01       	movw	r24, r12
     af4:	0f b6       	in	r0, 0x3f	; 63
     af6:	f8 94       	cli
     af8:	be be       	out	0x3e, r11	; 62
     afa:	0f be       	out	0x3f, r0	; 63
     afc:	ad be       	out	0x3d, r10	; 61
     afe:	df 91       	pop	r29
     b00:	cf 91       	pop	r28
     b02:	1f 91       	pop	r17
     b04:	0f 91       	pop	r16
     b06:	ff 90       	pop	r15
     b08:	ef 90       	pop	r14
     b0a:	df 90       	pop	r13
     b0c:	cf 90       	pop	r12
     b0e:	bf 90       	pop	r11
     b10:	af 90       	pop	r10
     b12:	9f 90       	pop	r9
     b14:	08 95       	ret

00000b16 <mcp_write>:

void mcp_write(char address, char* data, int length){
     b16:	ef 92       	push	r14
     b18:	ff 92       	push	r15
     b1a:	0f 93       	push	r16
     b1c:	1f 93       	push	r17
     b1e:	cf 93       	push	r28
     b20:	df 93       	push	r29
     b22:	c8 2f       	mov	r28, r24
     b24:	7b 01       	movw	r14, r22
     b26:	8a 01       	movw	r16, r20
	clear_bit(PORTB, PB4);
     b28:	c4 98       	cbi	0x18, 4	; 24
	spi_master_transmit(0b00000010);
     b2a:	82 e0       	ldi	r24, 0x02	; 2
     b2c:	0e 94 59 0b 	call	0x16b2	; 0x16b2 <spi_master_transmit>
	spi_master_transmit(address);
     b30:	8c 2f       	mov	r24, r28
     b32:	0e 94 59 0b 	call	0x16b2	; 0x16b2 <spi_master_transmit>
	for (int i = 0; i < length; i++)
     b36:	10 16       	cp	r1, r16
     b38:	11 06       	cpc	r1, r17
     b3a:	4c f4       	brge	.+18     	; 0xb4e <mcp_write+0x38>
     b3c:	e7 01       	movw	r28, r14
     b3e:	0e 0d       	add	r16, r14
     b40:	1f 1d       	adc	r17, r15
	{
		spi_master_transmit(data[i]);
     b42:	89 91       	ld	r24, Y+
     b44:	0e 94 59 0b 	call	0x16b2	; 0x16b2 <spi_master_transmit>

void mcp_write(char address, char* data, int length){
	clear_bit(PORTB, PB4);
	spi_master_transmit(0b00000010);
	spi_master_transmit(address);
	for (int i = 0; i < length; i++)
     b48:	c0 17       	cp	r28, r16
     b4a:	d1 07       	cpc	r29, r17
     b4c:	d1 f7       	brne	.-12     	; 0xb42 <mcp_write+0x2c>
	{
		spi_master_transmit(data[i]);
	}
	set_bit(PORTB,PB4);
     b4e:	c4 9a       	sbi	0x18, 4	; 24
}
     b50:	df 91       	pop	r29
     b52:	cf 91       	pop	r28
     b54:	1f 91       	pop	r17
     b56:	0f 91       	pop	r16
     b58:	ff 90       	pop	r15
     b5a:	ef 90       	pop	r14
     b5c:	08 95       	ret

00000b5e <mcp_request_to_send>:

void mcp_request_to_send(int TXB2, int TXB1, int TXB0){
	int command = 0b10000000 | TXB0 | (TXB1 << 1) | (TXB2 << 2);
	clear_bit(PORTB, PB4);
     b5e:	c4 98       	cbi	0x18, 4	; 24
	}
	set_bit(PORTB,PB4);
}

void mcp_request_to_send(int TXB2, int TXB1, int TXB0){
	int command = 0b10000000 | TXB0 | (TXB1 << 1) | (TXB2 << 2);
     b60:	88 0f       	add	r24, r24
     b62:	99 1f       	adc	r25, r25
     b64:	88 0f       	add	r24, r24
     b66:	99 1f       	adc	r25, r25
     b68:	80 68       	ori	r24, 0x80	; 128
     b6a:	48 2b       	or	r20, r24
     b6c:	59 2b       	or	r21, r25
     b6e:	cb 01       	movw	r24, r22
     b70:	88 0f       	add	r24, r24
     b72:	99 1f       	adc	r25, r25
	clear_bit(PORTB, PB4);
	spi_master_transmit(command);
     b74:	84 2b       	or	r24, r20
     b76:	0e 94 59 0b 	call	0x16b2	; 0x16b2 <spi_master_transmit>
	set_bit(PORTB, PB4);
     b7a:	c4 9a       	sbi	0x18, 4	; 24
     b7c:	08 95       	ret

00000b7e <mcp_read_status>:
}

char mcp_read_status(){
	clear_bit(PORTB, PB4);
     b7e:	c4 98       	cbi	0x18, 4	; 24
	spi_master_transmit(0b10100000);
     b80:	80 ea       	ldi	r24, 0xA0	; 160
     b82:	0e 94 59 0b 	call	0x16b2	; 0x16b2 <spi_master_transmit>
	char status = spi_master_transmit(0x00);
     b86:	80 e0       	ldi	r24, 0x00	; 0
     b88:	0e 94 59 0b 	call	0x16b2	; 0x16b2 <spi_master_transmit>
	set_bit(PORTB ,PB4);
     b8c:	c4 9a       	sbi	0x18, 4	; 24
	return status;
}
     b8e:	08 95       	ret

00000b90 <mcp_bit_modify>:

void mcp_bit_modify(char address, char mask, char data){
     b90:	1f 93       	push	r17
     b92:	cf 93       	push	r28
     b94:	df 93       	push	r29
     b96:	18 2f       	mov	r17, r24
     b98:	d6 2f       	mov	r29, r22
     b9a:	c4 2f       	mov	r28, r20
	clear_bit(PORTB, PB4);
     b9c:	c4 98       	cbi	0x18, 4	; 24
	spi_master_transmit(0b00000101);	
     b9e:	85 e0       	ldi	r24, 0x05	; 5
     ba0:	0e 94 59 0b 	call	0x16b2	; 0x16b2 <spi_master_transmit>
	spi_master_transmit(address);
     ba4:	81 2f       	mov	r24, r17
     ba6:	0e 94 59 0b 	call	0x16b2	; 0x16b2 <spi_master_transmit>
	spi_master_transmit(mask);
     baa:	8d 2f       	mov	r24, r29
     bac:	0e 94 59 0b 	call	0x16b2	; 0x16b2 <spi_master_transmit>
	spi_master_transmit(data);
     bb0:	8c 2f       	mov	r24, r28
     bb2:	0e 94 59 0b 	call	0x16b2	; 0x16b2 <spi_master_transmit>
	set_bit(PORTB, PB4);
     bb6:	c4 9a       	sbi	0x18, 4	; 24
}
     bb8:	df 91       	pop	r29
     bba:	cf 91       	pop	r28
     bbc:	1f 91       	pop	r17
     bbe:	08 95       	ret

00000bc0 <mcp_reset>:
		
void mcp_reset(){
	clear_bit(PORTB, PB4);
     bc0:	c4 98       	cbi	0x18, 4	; 24
	spi_master_transmit(0b11000000);	
     bc2:	80 ec       	ldi	r24, 0xC0	; 192
     bc4:	0e 94 59 0b 	call	0x16b2	; 0x16b2 <spi_master_transmit>
	set_bit(PORTB, PB4);
     bc8:	c4 9a       	sbi	0x18, 4	; 24
     bca:	08 95       	ret

00000bcc <draw_list>:
	}
	

	return self;
}
Menu* draw_list(Menu* self){
     bcc:	ef 92       	push	r14
     bce:	ff 92       	push	r15
     bd0:	0f 93       	push	r16
     bd2:	1f 93       	push	r17
     bd4:	cf 93       	push	r28
     bd6:	df 93       	push	r29
     bd8:	7c 01       	movw	r14, r24

	for(int i = 0; i < self->num_of_entries; i++){
     bda:	dc 01       	movw	r26, r24
     bdc:	14 96       	adiw	r26, 0x04	; 4
     bde:	8d 91       	ld	r24, X+
     be0:	9c 91       	ld	r25, X
     be2:	15 97       	sbiw	r26, 0x05	; 5
     be4:	18 16       	cp	r1, r24
     be6:	19 06       	cpc	r1, r25
     be8:	e4 f4       	brge	.+56     	; 0xc22 <draw_list+0x56>
     bea:	c0 e0       	ldi	r28, 0x00	; 0
     bec:	d0 e0       	ldi	r29, 0x00	; 0
		oled_print_string(self->entries[i],0,i,5,0);
     bee:	ce 01       	movw	r24, r28
     bf0:	88 0f       	add	r24, r24
     bf2:	99 1f       	adc	r25, r25
     bf4:	d7 01       	movw	r26, r14
     bf6:	12 96       	adiw	r26, 0x02	; 2
     bf8:	ed 91       	ld	r30, X+
     bfa:	fc 91       	ld	r31, X
     bfc:	13 97       	sbiw	r26, 0x03	; 3
     bfe:	e8 0f       	add	r30, r24
     c00:	f9 1f       	adc	r31, r25
     c02:	00 e0       	ldi	r16, 0x00	; 0
     c04:	10 e0       	ldi	r17, 0x00	; 0
     c06:	25 e0       	ldi	r18, 0x05	; 5
     c08:	4c 2f       	mov	r20, r28
     c0a:	60 e0       	ldi	r22, 0x00	; 0
     c0c:	80 81       	ld	r24, Z
     c0e:	91 81       	ldd	r25, Z+1	; 0x01
     c10:	0e 94 bb 09 	call	0x1376	; 0x1376 <oled_print_string>

	return self;
}
Menu* draw_list(Menu* self){

	for(int i = 0; i < self->num_of_entries; i++){
     c14:	21 96       	adiw	r28, 0x01	; 1
     c16:	f7 01       	movw	r30, r14
     c18:	84 81       	ldd	r24, Z+4	; 0x04
     c1a:	95 81       	ldd	r25, Z+5	; 0x05
     c1c:	c8 17       	cp	r28, r24
     c1e:	d9 07       	cpc	r29, r25
     c20:	34 f3       	brlt	.-52     	; 0xbee <draw_list+0x22>
		oled_print_string(self->entries[i],0,i,5,0);
	}

	//Where to go next
	Direction dir = joy_get_direction();
     c22:	0e 94 c1 04 	call	0x982	; 0x982 <joy_get_direction>
	if(!joy_moved){//THIS IS NEW
     c26:	20 91 76 02 	lds	r18, 0x0276
     c2a:	30 91 77 02 	lds	r19, 0x0277
     c2e:	23 2b       	or	r18, r19
     c30:	d9 f4       	brne	.+54     	; 0xc68 <draw_list+0x9c>
		if((dir == LEFT) & (self->super_menu != NULL)){
     c32:	d7 01       	movw	r26, r14
     c34:	18 96       	adiw	r26, 0x08	; 8
     c36:	2d 91       	ld	r18, X+
     c38:	3c 91       	ld	r19, X
     c3a:	19 97       	sbiw	r26, 0x09	; 9
     c3c:	91 e0       	ldi	r25, 0x01	; 1
     c3e:	82 30       	cpi	r24, 0x02	; 2
     c40:	09 f0       	breq	.+2      	; 0xc44 <draw_list+0x78>
     c42:	90 e0       	ldi	r25, 0x00	; 0
     c44:	99 23       	and	r25, r25
     c46:	39 f0       	breq	.+14     	; 0xc56 <draw_list+0x8a>
     c48:	81 e0       	ldi	r24, 0x01	; 1
     c4a:	21 15       	cp	r18, r1
     c4c:	31 05       	cpc	r19, r1
     c4e:	09 f4       	brne	.+2      	; 0xc52 <draw_list+0x86>
     c50:	80 e0       	ldi	r24, 0x00	; 0
     c52:	81 11       	cpse	r24, r1
     c54:	01 c0       	rjmp	.+2      	; 0xc58 <draw_list+0x8c>
     c56:	97 01       	movw	r18, r14
			self = self->super_menu;
		}
		joy_moved = 1;		
     c58:	81 e0       	ldi	r24, 0x01	; 1
     c5a:	90 e0       	ldi	r25, 0x00	; 0
     c5c:	90 93 77 02 	sts	0x0277, r25
     c60:	80 93 76 02 	sts	0x0276, r24
     c64:	79 01       	movw	r14, r18
     c66:	06 c0       	rjmp	.+12     	; 0xc74 <draw_list+0xa8>
	}
	else if (dir == NEUTRAL){ //THIS IS NEW
     c68:	8f 3f       	cpi	r24, 0xFF	; 255
     c6a:	21 f4       	brne	.+8      	; 0xc74 <draw_list+0xa8>
		joy_moved = 0;
     c6c:	10 92 77 02 	sts	0x0277, r1
     c70:	10 92 76 02 	sts	0x0276, r1
	}
	
	return self;
}
     c74:	c7 01       	movw	r24, r14
     c76:	df 91       	pop	r29
     c78:	cf 91       	pop	r28
     c7a:	1f 91       	pop	r17
     c7c:	0f 91       	pop	r16
     c7e:	ff 90       	pop	r15
     c80:	ef 90       	pop	r14
     c82:	08 95       	ret

00000c84 <draw_menu>:
	super->entries[super->num_of_entries - 1] = malloc(strlen(sub->name) * sizeof(char));
	super->entries[super->num_of_entries - 1] = sub->name;
}

//Drawing functions (change to update?)
Menu* draw_menu(Menu* self){
     c84:	ef 92       	push	r14
     c86:	ff 92       	push	r15
     c88:	0f 93       	push	r16
     c8a:	1f 93       	push	r17
     c8c:	cf 93       	push	r28
     c8e:	df 93       	push	r29
     c90:	7c 01       	movw	r14, r24
	
	for(int i = 0; i < self->num_of_entries; i++){
     c92:	dc 01       	movw	r26, r24
     c94:	14 96       	adiw	r26, 0x04	; 4
     c96:	8d 91       	ld	r24, X+
     c98:	9c 91       	ld	r25, X
     c9a:	15 97       	sbiw	r26, 0x05	; 5
     c9c:	18 16       	cp	r1, r24
     c9e:	19 06       	cpc	r1, r25
     ca0:	e4 f4       	brge	.+56     	; 0xcda <draw_menu+0x56>
     ca2:	c0 e0       	ldi	r28, 0x00	; 0
     ca4:	d0 e0       	ldi	r29, 0x00	; 0
		oled_print_string(self->entries[i],0,i,5,0);
     ca6:	ce 01       	movw	r24, r28
     ca8:	88 0f       	add	r24, r24
     caa:	99 1f       	adc	r25, r25
     cac:	d7 01       	movw	r26, r14
     cae:	12 96       	adiw	r26, 0x02	; 2
     cb0:	ed 91       	ld	r30, X+
     cb2:	fc 91       	ld	r31, X
     cb4:	13 97       	sbiw	r26, 0x03	; 3
     cb6:	e8 0f       	add	r30, r24
     cb8:	f9 1f       	adc	r31, r25
     cba:	00 e0       	ldi	r16, 0x00	; 0
     cbc:	10 e0       	ldi	r17, 0x00	; 0
     cbe:	25 e0       	ldi	r18, 0x05	; 5
     cc0:	4c 2f       	mov	r20, r28
     cc2:	60 e0       	ldi	r22, 0x00	; 0
     cc4:	80 81       	ld	r24, Z
     cc6:	91 81       	ldd	r25, Z+1	; 0x01
     cc8:	0e 94 bb 09 	call	0x1376	; 0x1376 <oled_print_string>
}

//Drawing functions (change to update?)
Menu* draw_menu(Menu* self){
	
	for(int i = 0; i < self->num_of_entries; i++){
     ccc:	21 96       	adiw	r28, 0x01	; 1
     cce:	f7 01       	movw	r30, r14
     cd0:	84 81       	ldd	r24, Z+4	; 0x04
     cd2:	95 81       	ldd	r25, Z+5	; 0x05
     cd4:	c8 17       	cp	r28, r24
     cd6:	d9 07       	cpc	r29, r25
     cd8:	34 f3       	brlt	.-52     	; 0xca6 <draw_menu+0x22>
		oled_print_string(self->entries[i],0,i,5,0);
	}
	oled_invert_rectangle(0,8*(self->cursor),64,8*((self->cursor) + 1));
     cda:	d7 01       	movw	r26, r14
     cdc:	16 96       	adiw	r26, 0x06	; 6
     cde:	2d 91       	ld	r18, X+
     ce0:	3c 91       	ld	r19, X
     ce2:	17 97       	sbiw	r26, 0x07	; 7
     ce4:	2f 5f       	subi	r18, 0xFF	; 255
     ce6:	3f 4f       	sbci	r19, 0xFF	; 255
     ce8:	22 0f       	add	r18, r18
     cea:	33 1f       	adc	r19, r19
     cec:	22 0f       	add	r18, r18
     cee:	33 1f       	adc	r19, r19
     cf0:	22 0f       	add	r18, r18
     cf2:	33 1f       	adc	r19, r19
     cf4:	b9 01       	movw	r22, r18
     cf6:	68 50       	subi	r22, 0x08	; 8
     cf8:	71 09       	sbc	r23, r1
     cfa:	40 e4       	ldi	r20, 0x40	; 64
     cfc:	50 e0       	ldi	r21, 0x00	; 0
     cfe:	80 e0       	ldi	r24, 0x00	; 0
     d00:	90 e0       	ldi	r25, 0x00	; 0
     d02:	0e 94 1b 0b 	call	0x1636	; 0x1636 <oled_invert_rectangle>
	
	//Where to go next
	Direction dir = joy_get_direction();
     d06:	0e 94 c1 04 	call	0x982	; 0x982 <joy_get_direction>
	if(1){	//THIS IS NEW
		if((dir == UP) & (self->cursor != 0)){
     d0a:	f7 01       	movw	r30, r14
     d0c:	26 81       	ldd	r18, Z+6	; 0x06
     d0e:	37 81       	ldd	r19, Z+7	; 0x07
     d10:	91 e0       	ldi	r25, 0x01	; 1
     d12:	81 30       	cpi	r24, 0x01	; 1
     d14:	09 f0       	breq	.+2      	; 0xd18 <draw_menu+0x94>
     d16:	90 e0       	ldi	r25, 0x00	; 0
     d18:	99 23       	and	r25, r25
     d1a:	09 f4       	brne	.+2      	; 0xd1e <draw_menu+0x9a>
     d1c:	4f c0       	rjmp	.+158    	; 0xdbc <draw_menu+0x138>
     d1e:	91 e0       	ldi	r25, 0x01	; 1
     d20:	21 15       	cp	r18, r1
     d22:	31 05       	cpc	r19, r1
     d24:	09 f4       	brne	.+2      	; 0xd28 <draw_menu+0xa4>
     d26:	90 e0       	ldi	r25, 0x00	; 0
     d28:	99 23       	and	r25, r25
     d2a:	09 f4       	brne	.+2      	; 0xd2e <draw_menu+0xaa>
     d2c:	47 c0       	rjmp	.+142    	; 0xdbc <draw_menu+0x138>
     d2e:	c0 e0       	ldi	r28, 0x00	; 0
     d30:	d0 e0       	ldi	r29, 0x00	; 0
			for (int i = 0; i < 8; i++,i++){
				oled_invert_rectangle(0,8*(self->cursor) - i - 2,64,8*((self->cursor) + 1) - i - 2);
     d32:	d7 01       	movw	r26, r14
     d34:	16 96       	adiw	r26, 0x06	; 6
     d36:	6d 91       	ld	r22, X+
     d38:	7c 91       	ld	r23, X
     d3a:	17 97       	sbiw	r26, 0x07	; 7
     d3c:	6f 5f       	subi	r22, 0xFF	; 255
     d3e:	7f 4f       	sbci	r23, 0xFF	; 255
     d40:	66 0f       	add	r22, r22
     d42:	77 1f       	adc	r23, r23
     d44:	66 0f       	add	r22, r22
     d46:	77 1f       	adc	r23, r23
     d48:	66 0f       	add	r22, r22
     d4a:	77 1f       	adc	r23, r23
     d4c:	9b 01       	movw	r18, r22
     d4e:	2c 1b       	sub	r18, r28
     d50:	3d 0b       	sbc	r19, r29
     d52:	22 50       	subi	r18, 0x02	; 2
     d54:	31 09       	sbc	r19, r1
     d56:	6c 1b       	sub	r22, r28
     d58:	7d 0b       	sbc	r23, r29
     d5a:	6a 50       	subi	r22, 0x0A	; 10
     d5c:	71 09       	sbc	r23, r1
     d5e:	40 e4       	ldi	r20, 0x40	; 64
     d60:	50 e0       	ldi	r21, 0x00	; 0
     d62:	80 e0       	ldi	r24, 0x00	; 0
     d64:	90 e0       	ldi	r25, 0x00	; 0
     d66:	0e 94 1b 0b 	call	0x1636	; 0x1636 <oled_invert_rectangle>
				oled_invert_rectangle(0,8*(self->cursor) - i,64,8*((self->cursor) + 1) - i);
     d6a:	f7 01       	movw	r30, r14
     d6c:	66 81       	ldd	r22, Z+6	; 0x06
     d6e:	77 81       	ldd	r23, Z+7	; 0x07
     d70:	6f 5f       	subi	r22, 0xFF	; 255
     d72:	7f 4f       	sbci	r23, 0xFF	; 255
     d74:	66 0f       	add	r22, r22
     d76:	77 1f       	adc	r23, r23
     d78:	66 0f       	add	r22, r22
     d7a:	77 1f       	adc	r23, r23
     d7c:	66 0f       	add	r22, r22
     d7e:	77 1f       	adc	r23, r23
     d80:	9b 01       	movw	r18, r22
     d82:	2c 1b       	sub	r18, r28
     d84:	3d 0b       	sbc	r19, r29
     d86:	68 50       	subi	r22, 0x08	; 8
     d88:	71 09       	sbc	r23, r1
     d8a:	6c 1b       	sub	r22, r28
     d8c:	7d 0b       	sbc	r23, r29
     d8e:	40 e4       	ldi	r20, 0x40	; 64
     d90:	50 e0       	ldi	r21, 0x00	; 0
     d92:	80 e0       	ldi	r24, 0x00	; 0
     d94:	90 e0       	ldi	r25, 0x00	; 0
     d96:	0e 94 1b 0b 	call	0x1636	; 0x1636 <oled_invert_rectangle>
				oled_refresh();
     d9a:	0e 94 b7 0a 	call	0x156e	; 0x156e <oled_refresh>
	
	//Where to go next
	Direction dir = joy_get_direction();
	if(1){	//THIS IS NEW
		if((dir == UP) & (self->cursor != 0)){
			for (int i = 0; i < 8; i++,i++){
     d9e:	22 96       	adiw	r28, 0x02	; 2
     da0:	c8 30       	cpi	r28, 0x08	; 8
     da2:	d1 05       	cpc	r29, r1
     da4:	31 f6       	brne	.-116    	; 0xd32 <draw_menu+0xae>
				oled_invert_rectangle(0,8*(self->cursor) - i - 2,64,8*((self->cursor) + 1) - i - 2);
				oled_invert_rectangle(0,8*(self->cursor) - i,64,8*((self->cursor) + 1) - i);
				oled_refresh();
			}
			self->cursor--;
     da6:	d7 01       	movw	r26, r14
     da8:	16 96       	adiw	r26, 0x06	; 6
     daa:	8d 91       	ld	r24, X+
     dac:	9c 91       	ld	r25, X
     dae:	17 97       	sbiw	r26, 0x07	; 7
     db0:	01 97       	sbiw	r24, 0x01	; 1
     db2:	17 96       	adiw	r26, 0x07	; 7
     db4:	9c 93       	st	X, r25
     db6:	8e 93       	st	-X, r24
     db8:	16 97       	sbiw	r26, 0x06	; 6
     dba:	88 c0       	rjmp	.+272    	; 0xecc <draw_menu+0x248>
		}
		else if((dir == DOWN) & (self->cursor != (self->num_of_entries - 1))){
     dbc:	91 e0       	ldi	r25, 0x01	; 1
     dbe:	83 30       	cpi	r24, 0x03	; 3
     dc0:	09 f0       	breq	.+2      	; 0xdc4 <draw_menu+0x140>
     dc2:	90 e0       	ldi	r25, 0x00	; 0
     dc4:	99 23       	and	r25, r25
     dc6:	09 f4       	brne	.+2      	; 0xdca <draw_menu+0x146>
     dc8:	54 c0       	rjmp	.+168    	; 0xe72 <draw_menu+0x1ee>
     dca:	f7 01       	movw	r30, r14
     dcc:	44 81       	ldd	r20, Z+4	; 0x04
     dce:	55 81       	ldd	r21, Z+5	; 0x05
     dd0:	41 50       	subi	r20, 0x01	; 1
     dd2:	51 09       	sbc	r21, r1
     dd4:	91 e0       	ldi	r25, 0x01	; 1
     dd6:	24 17       	cp	r18, r20
     dd8:	35 07       	cpc	r19, r21
     dda:	09 f4       	brne	.+2      	; 0xdde <draw_menu+0x15a>
     ddc:	90 e0       	ldi	r25, 0x00	; 0
     dde:	99 23       	and	r25, r25
     de0:	09 f4       	brne	.+2      	; 0xde4 <draw_menu+0x160>
     de2:	47 c0       	rjmp	.+142    	; 0xe72 <draw_menu+0x1ee>
     de4:	c0 e0       	ldi	r28, 0x00	; 0
     de6:	d0 e0       	ldi	r29, 0x00	; 0
			
			//---NEW--- ANIMATION FOR DOWNWARDS MOVEMENT
			for (int i = 0; i < 8; i++,i++){
				oled_invert_rectangle(0,8*(self->cursor) + i,64,8*((self->cursor) + 1) + i);
     de8:	d7 01       	movw	r26, r14
     dea:	16 96       	adiw	r26, 0x06	; 6
     dec:	6d 91       	ld	r22, X+
     dee:	7c 91       	ld	r23, X
     df0:	17 97       	sbiw	r26, 0x07	; 7
     df2:	6f 5f       	subi	r22, 0xFF	; 255
     df4:	7f 4f       	sbci	r23, 0xFF	; 255
     df6:	66 0f       	add	r22, r22
     df8:	77 1f       	adc	r23, r23
     dfa:	66 0f       	add	r22, r22
     dfc:	77 1f       	adc	r23, r23
     dfe:	66 0f       	add	r22, r22
     e00:	77 1f       	adc	r23, r23
     e02:	9b 01       	movw	r18, r22
     e04:	2c 0f       	add	r18, r28
     e06:	3d 1f       	adc	r19, r29
     e08:	68 50       	subi	r22, 0x08	; 8
     e0a:	71 09       	sbc	r23, r1
     e0c:	6c 0f       	add	r22, r28
     e0e:	7d 1f       	adc	r23, r29
     e10:	40 e4       	ldi	r20, 0x40	; 64
     e12:	50 e0       	ldi	r21, 0x00	; 0
     e14:	80 e0       	ldi	r24, 0x00	; 0
     e16:	90 e0       	ldi	r25, 0x00	; 0
     e18:	0e 94 1b 0b 	call	0x1636	; 0x1636 <oled_invert_rectangle>
				oled_invert_rectangle(0,8*(self->cursor) + i + 2,64,8*((self->cursor) + 1) + i + 2);
     e1c:	f7 01       	movw	r30, r14
     e1e:	66 81       	ldd	r22, Z+6	; 0x06
     e20:	77 81       	ldd	r23, Z+7	; 0x07
     e22:	6f 5f       	subi	r22, 0xFF	; 255
     e24:	7f 4f       	sbci	r23, 0xFF	; 255
     e26:	66 0f       	add	r22, r22
     e28:	77 1f       	adc	r23, r23
     e2a:	66 0f       	add	r22, r22
     e2c:	77 1f       	adc	r23, r23
     e2e:	66 0f       	add	r22, r22
     e30:	77 1f       	adc	r23, r23
     e32:	9b 01       	movw	r18, r22
     e34:	2c 0f       	add	r18, r28
     e36:	3d 1f       	adc	r19, r29
     e38:	2e 5f       	subi	r18, 0xFE	; 254
     e3a:	3f 4f       	sbci	r19, 0xFF	; 255
     e3c:	6c 0f       	add	r22, r28
     e3e:	7d 1f       	adc	r23, r29
     e40:	66 50       	subi	r22, 0x06	; 6
     e42:	71 09       	sbc	r23, r1
     e44:	40 e4       	ldi	r20, 0x40	; 64
     e46:	50 e0       	ldi	r21, 0x00	; 0
     e48:	80 e0       	ldi	r24, 0x00	; 0
     e4a:	90 e0       	ldi	r25, 0x00	; 0
     e4c:	0e 94 1b 0b 	call	0x1636	; 0x1636 <oled_invert_rectangle>
				oled_refresh();
     e50:	0e 94 b7 0a 	call	0x156e	; 0x156e <oled_refresh>
			self->cursor--;
		}
		else if((dir == DOWN) & (self->cursor != (self->num_of_entries - 1))){
			
			//---NEW--- ANIMATION FOR DOWNWARDS MOVEMENT
			for (int i = 0; i < 8; i++,i++){
     e54:	22 96       	adiw	r28, 0x02	; 2
     e56:	c8 30       	cpi	r28, 0x08	; 8
     e58:	d1 05       	cpc	r29, r1
     e5a:	31 f6       	brne	.-116    	; 0xde8 <draw_menu+0x164>
				oled_invert_rectangle(0,8*(self->cursor) + i + 2,64,8*((self->cursor) + 1) + i + 2);
				oled_refresh();
			}
			//-------------
			
			self->cursor++;
     e5c:	d7 01       	movw	r26, r14
     e5e:	16 96       	adiw	r26, 0x06	; 6
     e60:	8d 91       	ld	r24, X+
     e62:	9c 91       	ld	r25, X
     e64:	17 97       	sbiw	r26, 0x07	; 7
     e66:	01 96       	adiw	r24, 0x01	; 1
     e68:	17 96       	adiw	r26, 0x07	; 7
     e6a:	9c 93       	st	X, r25
     e6c:	8e 93       	st	-X, r24
     e6e:	16 97       	sbiw	r26, 0x06	; 6
     e70:	2d c0       	rjmp	.+90     	; 0xecc <draw_menu+0x248>
		}
		else if((dir == RIGHT) & (self->sub_menus[self->cursor]->num_of_entries != 0)){ //THIS IS CHANGED
     e72:	22 0f       	add	r18, r18
     e74:	33 1f       	adc	r19, r19
     e76:	d7 01       	movw	r26, r14
     e78:	1a 96       	adiw	r26, 0x0a	; 10
     e7a:	ed 91       	ld	r30, X+
     e7c:	fc 91       	ld	r31, X
     e7e:	1b 97       	sbiw	r26, 0x0b	; 11
     e80:	e2 0f       	add	r30, r18
     e82:	f3 1f       	adc	r31, r19
     e84:	01 90       	ld	r0, Z+
     e86:	f0 81       	ld	r31, Z
     e88:	e0 2d       	mov	r30, r0
     e8a:	91 e0       	ldi	r25, 0x01	; 1
     e8c:	81 11       	cpse	r24, r1
     e8e:	90 e0       	ldi	r25, 0x00	; 0
     e90:	99 23       	and	r25, r25
     e92:	41 f0       	breq	.+16     	; 0xea4 <draw_menu+0x220>
     e94:	91 e0       	ldi	r25, 0x01	; 1
     e96:	24 81       	ldd	r18, Z+4	; 0x04
     e98:	35 81       	ldd	r19, Z+5	; 0x05
     e9a:	23 2b       	or	r18, r19
     e9c:	09 f4       	brne	.+2      	; 0xea0 <draw_menu+0x21c>
     e9e:	90 e0       	ldi	r25, 0x00	; 0
     ea0:	91 11       	cpse	r25, r1
     ea2:	11 c0       	rjmp	.+34     	; 0xec6 <draw_menu+0x242>
			self = self->sub_menus[self->cursor];
		}
		else if((dir == LEFT) & (self->super_menu != NULL)){
     ea4:	f7 01       	movw	r30, r14
     ea6:	20 85       	ldd	r18, Z+8	; 0x08
     ea8:	31 85       	ldd	r19, Z+9	; 0x09
     eaa:	91 e0       	ldi	r25, 0x01	; 1
     eac:	82 30       	cpi	r24, 0x02	; 2
     eae:	09 f0       	breq	.+2      	; 0xeb2 <draw_menu+0x22e>
     eb0:	90 e0       	ldi	r25, 0x00	; 0
     eb2:	99 23       	and	r25, r25
     eb4:	59 f0       	breq	.+22     	; 0xecc <draw_menu+0x248>
     eb6:	81 e0       	ldi	r24, 0x01	; 1
     eb8:	21 15       	cp	r18, r1
     eba:	31 05       	cpc	r19, r1
     ebc:	09 f4       	brne	.+2      	; 0xec0 <draw_menu+0x23c>
     ebe:	80 e0       	ldi	r24, 0x00	; 0
     ec0:	81 11       	cpse	r24, r1
     ec2:	03 c0       	rjmp	.+6      	; 0xeca <draw_menu+0x246>
     ec4:	03 c0       	rjmp	.+6      	; 0xecc <draw_menu+0x248>
			//-------------
			
			self->cursor++;
		}
		else if((dir == RIGHT) & (self->sub_menus[self->cursor]->num_of_entries != 0)){ //THIS IS CHANGED
			self = self->sub_menus[self->cursor];
     ec6:	7f 01       	movw	r14, r30
     ec8:	01 c0       	rjmp	.+2      	; 0xecc <draw_menu+0x248>
		}
		else if((dir == LEFT) & (self->super_menu != NULL)){
			self = self->super_menu;
     eca:	79 01       	movw	r14, r18
		}
		joy_moved = 1;
     ecc:	81 e0       	ldi	r24, 0x01	; 1
     ece:	90 e0       	ldi	r25, 0x00	; 0
     ed0:	90 93 77 02 	sts	0x0277, r25
     ed4:	80 93 76 02 	sts	0x0276, r24
		joy_moved = 0;
	}
	

	return self;
}
     ed8:	c7 01       	movw	r24, r14
     eda:	df 91       	pop	r29
     edc:	cf 91       	pop	r28
     ede:	1f 91       	pop	r17
     ee0:	0f 91       	pop	r16
     ee2:	ff 90       	pop	r15
     ee4:	ef 90       	pop	r14
     ee6:	08 95       	ret

00000ee8 <add_entries>:
	
}
//----------NO NEED TO CHANGE THINGS BEYOND THIS----------

//Functions for adding entries and nodes
void add_entries(Menu* menu, char* entries[], int num_of_new_entries){
     ee8:	af 92       	push	r10
     eea:	bf 92       	push	r11
     eec:	cf 92       	push	r12
     eee:	df 92       	push	r13
     ef0:	ef 92       	push	r14
     ef2:	ff 92       	push	r15
     ef4:	0f 93       	push	r16
     ef6:	1f 93       	push	r17
     ef8:	cf 93       	push	r28
     efa:	df 93       	push	r29
     efc:	8c 01       	movw	r16, r24
     efe:	e6 2e       	mov	r14, r22
     f00:	f7 2e       	mov	r15, r23
     f02:	ea 01       	movw	r28, r20
	
	menu->entries = malloc(num_of_new_entries * sizeof(char*));	//Correct size of double pointer
     f04:	6a 01       	movw	r12, r20
     f06:	cc 0c       	add	r12, r12
     f08:	dd 1c       	adc	r13, r13
     f0a:	c6 01       	movw	r24, r12
     f0c:	0e 94 dc 0e 	call	0x1db8	; 0x1db8 <malloc>
     f10:	d8 01       	movw	r26, r16
     f12:	13 96       	adiw	r26, 0x03	; 3
     f14:	9c 93       	st	X, r25
     f16:	8e 93       	st	-X, r24
     f18:	12 97       	sbiw	r26, 0x02	; 2
	
	for(int i = 0; i < num_of_new_entries; i++){
     f1a:	1c 16       	cp	r1, r28
     f1c:	1d 06       	cpc	r1, r29
     f1e:	54 f5       	brge	.+84     	; 0xf74 <add_entries+0x8c>
     f20:	ae 2c       	mov	r10, r14
     f22:	bf 2c       	mov	r11, r15
     f24:	c0 e0       	ldi	r28, 0x00	; 0
     f26:	d0 e0       	ldi	r29, 0x00	; 0
		menu->entries[i] = malloc(strlen(entries[i]) * sizeof(char)); //Allocate space for each string
     f28:	f8 01       	movw	r30, r16
     f2a:	e2 80       	ldd	r14, Z+2	; 0x02
     f2c:	f3 80       	ldd	r15, Z+3	; 0x03
     f2e:	ec 0e       	add	r14, r28
     f30:	fd 1e       	adc	r15, r29
     f32:	f5 01       	movw	r30, r10
     f34:	a0 81       	ld	r26, Z
     f36:	b1 81       	ldd	r27, Z+1	; 0x01
     f38:	fd 01       	movw	r30, r26
     f3a:	01 90       	ld	r0, Z+
     f3c:	00 20       	and	r0, r0
     f3e:	e9 f7       	brne	.-6      	; 0xf3a <add_entries+0x52>
     f40:	31 97       	sbiw	r30, 0x01	; 1
     f42:	cf 01       	movw	r24, r30
     f44:	8a 1b       	sub	r24, r26
     f46:	9b 0b       	sbc	r25, r27
     f48:	0e 94 dc 0e 	call	0x1db8	; 0x1db8 <malloc>
     f4c:	d7 01       	movw	r26, r14
     f4e:	8d 93       	st	X+, r24
     f50:	9c 93       	st	X, r25
		menu->entries[i] =  entries[i];								  //Adds each string
     f52:	f5 01       	movw	r30, r10
     f54:	81 91       	ld	r24, Z+
     f56:	91 91       	ld	r25, Z+
     f58:	5f 01       	movw	r10, r30
     f5a:	d8 01       	movw	r26, r16
     f5c:	12 96       	adiw	r26, 0x02	; 2
     f5e:	ed 91       	ld	r30, X+
     f60:	fc 91       	ld	r31, X
     f62:	13 97       	sbiw	r26, 0x03	; 3
     f64:	ec 0f       	add	r30, r28
     f66:	fd 1f       	adc	r31, r29
     f68:	91 83       	std	Z+1, r25	; 0x01
     f6a:	80 83       	st	Z, r24
     f6c:	22 96       	adiw	r28, 0x02	; 2
//Functions for adding entries and nodes
void add_entries(Menu* menu, char* entries[], int num_of_new_entries){
	
	menu->entries = malloc(num_of_new_entries * sizeof(char*));	//Correct size of double pointer
	
	for(int i = 0; i < num_of_new_entries; i++){
     f6e:	cc 16       	cp	r12, r28
     f70:	dd 06       	cpc	r13, r29
     f72:	d1 f6       	brne	.-76     	; 0xf28 <add_entries+0x40>
		//empty->name = entries[i];
		//add_sub_menu(menu, empty);
		//menu->num_of_entries+=1;
	}
	//menu->num_of_entries = num_of_new_entries;
	menu->cursor = 0; //To make sure the cursor is not something else
     f74:	f8 01       	movw	r30, r16
     f76:	17 82       	std	Z+7, r1	; 0x07
     f78:	16 82       	std	Z+6, r1	; 0x06
}
     f7a:	df 91       	pop	r29
     f7c:	cf 91       	pop	r28
     f7e:	1f 91       	pop	r17
     f80:	0f 91       	pop	r16
     f82:	ff 90       	pop	r15
     f84:	ef 90       	pop	r14
     f86:	df 90       	pop	r13
     f88:	cf 90       	pop	r12
     f8a:	bf 90       	pop	r11
     f8c:	af 90       	pop	r10
     f8e:	08 95       	ret

00000f90 <add_sub_menu>:

void add_sub_menu(Menu* super, Menu* sub){
     f90:	ef 92       	push	r14
     f92:	ff 92       	push	r15
     f94:	0f 93       	push	r16
     f96:	1f 93       	push	r17
     f98:	cf 93       	push	r28
     f9a:	df 93       	push	r29
     f9c:	ec 01       	movw	r28, r24
     f9e:	8b 01       	movw	r16, r22
	super->num_of_entries += 1;		//Num of entries in super are updated
     fa0:	8c 81       	ldd	r24, Y+4	; 0x04
     fa2:	9d 81       	ldd	r25, Y+5	; 0x05
     fa4:	01 96       	adiw	r24, 0x01	; 1
     fa6:	9d 83       	std	Y+5, r25	; 0x05
     fa8:	8c 83       	std	Y+4, r24	; 0x04
	
	//Pointers to and from the menus are set correctly
	sub->super_menu = super;
     faa:	fb 01       	movw	r30, r22
     fac:	d1 87       	std	Z+9, r29	; 0x09
     fae:	c0 87       	std	Z+8, r28	; 0x08
	super->sub_menus = realloc(super->sub_menus, super->num_of_entries * sizeof(Menu*));
     fb0:	6c 81       	ldd	r22, Y+4	; 0x04
     fb2:	7d 81       	ldd	r23, Y+5	; 0x05
     fb4:	66 0f       	add	r22, r22
     fb6:	77 1f       	adc	r23, r23
     fb8:	8a 85       	ldd	r24, Y+10	; 0x0a
     fba:	9b 85       	ldd	r25, Y+11	; 0x0b
     fbc:	0e 94 03 10 	call	0x2006	; 0x2006 <realloc>
     fc0:	9b 87       	std	Y+11, r25	; 0x0b
     fc2:	8a 87       	std	Y+10, r24	; 0x0a
	super->sub_menus[super->num_of_entries - 1] = malloc(sizeof(Menu));
     fc4:	ec 80       	ldd	r14, Y+4	; 0x04
     fc6:	fd 80       	ldd	r15, Y+5	; 0x05
     fc8:	f1 e0       	ldi	r31, 0x01	; 1
     fca:	ef 1a       	sub	r14, r31
     fcc:	f0 e8       	ldi	r31, 0x80	; 128
     fce:	ff 0a       	sbc	r15, r31
     fd0:	ee 0c       	add	r14, r14
     fd2:	ff 1c       	adc	r15, r15
     fd4:	e8 0e       	add	r14, r24
     fd6:	f9 1e       	adc	r15, r25
     fd8:	8e e0       	ldi	r24, 0x0E	; 14
     fda:	90 e0       	ldi	r25, 0x00	; 0
     fdc:	0e 94 dc 0e 	call	0x1db8	; 0x1db8 <malloc>
     fe0:	f7 01       	movw	r30, r14
     fe2:	91 83       	std	Z+1, r25	; 0x01
     fe4:	80 83       	st	Z, r24
	super->sub_menus[super->num_of_entries - 1] = sub;
     fe6:	ec 81       	ldd	r30, Y+4	; 0x04
     fe8:	fd 81       	ldd	r31, Y+5	; 0x05
     fea:	e1 50       	subi	r30, 0x01	; 1
     fec:	f0 48       	sbci	r31, 0x80	; 128
     fee:	ee 0f       	add	r30, r30
     ff0:	ff 1f       	adc	r31, r31
     ff2:	8a 85       	ldd	r24, Y+10	; 0x0a
     ff4:	9b 85       	ldd	r25, Y+11	; 0x0b
     ff6:	e8 0f       	add	r30, r24
     ff8:	f9 1f       	adc	r31, r25
     ffa:	11 83       	std	Z+1, r17	; 0x01
     ffc:	00 83       	st	Z, r16
	
	//Name of entries in the super menu are updated
	super->entries = realloc(super->entries, super->num_of_entries * sizeof(char*));
     ffe:	6c 81       	ldd	r22, Y+4	; 0x04
    1000:	7d 81       	ldd	r23, Y+5	; 0x05
    1002:	66 0f       	add	r22, r22
    1004:	77 1f       	adc	r23, r23
    1006:	8a 81       	ldd	r24, Y+2	; 0x02
    1008:	9b 81       	ldd	r25, Y+3	; 0x03
    100a:	0e 94 03 10 	call	0x2006	; 0x2006 <realloc>
    100e:	9b 83       	std	Y+3, r25	; 0x03
    1010:	8a 83       	std	Y+2, r24	; 0x02
	super->entries[super->num_of_entries - 1] = malloc(strlen(sub->name) * sizeof(char));
    1012:	ec 80       	ldd	r14, Y+4	; 0x04
    1014:	fd 80       	ldd	r15, Y+5	; 0x05
    1016:	f1 e0       	ldi	r31, 0x01	; 1
    1018:	ef 1a       	sub	r14, r31
    101a:	f0 e8       	ldi	r31, 0x80	; 128
    101c:	ff 0a       	sbc	r15, r31
    101e:	ee 0c       	add	r14, r14
    1020:	ff 1c       	adc	r15, r15
    1022:	e8 0e       	add	r14, r24
    1024:	f9 1e       	adc	r15, r25
    1026:	f8 01       	movw	r30, r16
    1028:	a0 81       	ld	r26, Z
    102a:	b1 81       	ldd	r27, Z+1	; 0x01
    102c:	fd 01       	movw	r30, r26
    102e:	01 90       	ld	r0, Z+
    1030:	00 20       	and	r0, r0
    1032:	e9 f7       	brne	.-6      	; 0x102e <add_sub_menu+0x9e>
    1034:	31 97       	sbiw	r30, 0x01	; 1
    1036:	cf 01       	movw	r24, r30
    1038:	8a 1b       	sub	r24, r26
    103a:	9b 0b       	sbc	r25, r27
    103c:	0e 94 dc 0e 	call	0x1db8	; 0x1db8 <malloc>
    1040:	f7 01       	movw	r30, r14
    1042:	91 83       	std	Z+1, r25	; 0x01
    1044:	80 83       	st	Z, r24
	super->entries[super->num_of_entries - 1] = sub->name;
    1046:	f8 01       	movw	r30, r16
    1048:	80 81       	ld	r24, Z
    104a:	91 81       	ldd	r25, Z+1	; 0x01
    104c:	ec 81       	ldd	r30, Y+4	; 0x04
    104e:	fd 81       	ldd	r31, Y+5	; 0x05
    1050:	e1 50       	subi	r30, 0x01	; 1
    1052:	f0 48       	sbci	r31, 0x80	; 128
    1054:	ee 0f       	add	r30, r30
    1056:	ff 1f       	adc	r31, r31
    1058:	2a 81       	ldd	r18, Y+2	; 0x02
    105a:	3b 81       	ldd	r19, Y+3	; 0x03
    105c:	e2 0f       	add	r30, r18
    105e:	f3 1f       	adc	r31, r19
    1060:	91 83       	std	Z+1, r25	; 0x01
    1062:	80 83       	st	Z, r24
}
    1064:	df 91       	pop	r29
    1066:	cf 91       	pop	r28
    1068:	1f 91       	pop	r17
    106a:	0f 91       	pop	r16
    106c:	ff 90       	pop	r15
    106e:	ef 90       	pop	r14
    1070:	08 95       	ret

00001072 <menu_init>:
	//.type = MENU,
	.draw = draw_menu
};

//The initializer - How the menus are related
void menu_init(){
    1072:	cf 93       	push	r28
    1074:	df 93       	push	r29
    1076:	cd b7       	in	r28, 0x3d	; 61
    1078:	de b7       	in	r29, 0x3e	; 62
    107a:	6c 97       	sbiw	r28, 0x1c	; 28
    107c:	0f b6       	in	r0, 0x3f	; 63
    107e:	f8 94       	cli
    1080:	de bf       	out	0x3e, r29	; 62
    1082:	0f be       	out	0x3f, r0	; 63
    1084:	cd bf       	out	0x3d, r28	; 61
	
	char* control_entr[3] = {"Player1", "Player2", "Player3"};
    1086:	86 e0       	ldi	r24, 0x06	; 6
    1088:	e6 e7       	ldi	r30, 0x76	; 118
    108a:	f1 e0       	ldi	r31, 0x01	; 1
    108c:	de 01       	movw	r26, r28
    108e:	11 96       	adiw	r26, 0x01	; 1
    1090:	01 90       	ld	r0, Z+
    1092:	0d 92       	st	X+, r0
    1094:	8a 95       	dec	r24
    1096:	e1 f7       	brne	.-8      	; 0x1090 <menu_init+0x1e>
	add_entries(&control, control_entr, 3);
    1098:	43 e0       	ldi	r20, 0x03	; 3
    109a:	50 e0       	ldi	r21, 0x00	; 0
    109c:	be 01       	movw	r22, r28
    109e:	6f 5f       	subi	r22, 0xFF	; 255
    10a0:	7f 4f       	sbci	r23, 0xFF	; 255
    10a2:	8a e1       	ldi	r24, 0x1A	; 26
    10a4:	91 e0       	ldi	r25, 0x01	; 1
    10a6:	0e 94 74 07 	call	0xee8	; 0xee8 <add_entries>
	add_sub_menu(&options, &control);
    10aa:	6a e1       	ldi	r22, 0x1A	; 26
    10ac:	71 e0       	ldi	r23, 0x01	; 1
    10ae:	86 e3       	ldi	r24, 0x36	; 54
    10b0:	91 e0       	ldi	r25, 0x01	; 1
    10b2:	0e 94 c8 07 	call	0xf90	; 0xf90 <add_sub_menu>
	
	char* contro_entr[4] = {"Low", "Medium", "High","Ultra"};
    10b6:	88 e0       	ldi	r24, 0x08	; 8
    10b8:	ec e7       	ldi	r30, 0x7C	; 124
    10ba:	f1 e0       	ldi	r31, 0x01	; 1
    10bc:	de 01       	movw	r26, r28
    10be:	17 96       	adiw	r26, 0x07	; 7
    10c0:	01 90       	ld	r0, Z+
    10c2:	0d 92       	st	X+, r0
    10c4:	8a 95       	dec	r24
    10c6:	e1 f7       	brne	.-8      	; 0x10c0 <menu_init+0x4e>
	add_entries(&contro, contro_entr, 4);
    10c8:	44 e0       	ldi	r20, 0x04	; 4
    10ca:	50 e0       	ldi	r21, 0x00	; 0
    10cc:	be 01       	movw	r22, r28
    10ce:	69 5f       	subi	r22, 0xF9	; 249
    10d0:	7f 4f       	sbci	r23, 0xFF	; 255
    10d2:	8c e0       	ldi	r24, 0x0C	; 12
    10d4:	91 e0       	ldi	r25, 0x01	; 1
    10d6:	0e 94 74 07 	call	0xee8	; 0xee8 <add_entries>
	add_sub_menu(&options, &contro);
    10da:	6c e0       	ldi	r22, 0x0C	; 12
    10dc:	71 e0       	ldi	r23, 0x01	; 1
    10de:	86 e3       	ldi	r24, 0x36	; 54
    10e0:	91 e0       	ldi	r25, 0x01	; 1
    10e2:	0e 94 c8 07 	call	0xf90	; 0xf90 <add_sub_menu>
	
	add_sub_menu(&main_menu, &options);
    10e6:	66 e3       	ldi	r22, 0x36	; 54
    10e8:	71 e0       	ldi	r23, 0x01	; 1
    10ea:	82 e5       	ldi	r24, 0x52	; 82
    10ec:	91 e0       	ldi	r25, 0x01	; 1
    10ee:	0e 94 c8 07 	call	0xf90	; 0xf90 <add_sub_menu>
	
	char* diff_entr[3] = {"Easy", "Medium", "Hard"};
    10f2:	86 e0       	ldi	r24, 0x06	; 6
    10f4:	e4 e8       	ldi	r30, 0x84	; 132
    10f6:	f1 e0       	ldi	r31, 0x01	; 1
    10f8:	de 01       	movw	r26, r28
    10fa:	1f 96       	adiw	r26, 0x0f	; 15
    10fc:	01 90       	ld	r0, Z+
    10fe:	0d 92       	st	X+, r0
    1100:	8a 95       	dec	r24
    1102:	e1 f7       	brne	.-8      	; 0x10fc <menu_init+0x8a>
	add_entries(&difficulty, diff_entr, 3);
    1104:	43 e0       	ldi	r20, 0x03	; 3
    1106:	50 e0       	ldi	r21, 0x00	; 0
    1108:	be 01       	movw	r22, r28
    110a:	61 5f       	subi	r22, 0xF1	; 241
    110c:	7f 4f       	sbci	r23, 0xFF	; 255
    110e:	84 e4       	ldi	r24, 0x44	; 68
    1110:	91 e0       	ldi	r25, 0x01	; 1
    1112:	0e 94 74 07 	call	0xee8	; 0xee8 <add_entries>
	add_sub_menu(&main_menu, &difficulty);
    1116:	64 e4       	ldi	r22, 0x44	; 68
    1118:	71 e0       	ldi	r23, 0x01	; 1
    111a:	82 e5       	ldi	r24, 0x52	; 82
    111c:	91 e0       	ldi	r25, 0x01	; 1
    111e:	0e 94 c8 07 	call	0xf90	; 0xf90 <add_sub_menu>
	
	char* high_entr[4] = {"1. Herman","2. Raoul","3. Alle andre","-inf^inf. Hans"};
    1122:	88 e0       	ldi	r24, 0x08	; 8
    1124:	ea e8       	ldi	r30, 0x8A	; 138
    1126:	f1 e0       	ldi	r31, 0x01	; 1
    1128:	de 01       	movw	r26, r28
    112a:	55 96       	adiw	r26, 0x15	; 21
    112c:	01 90       	ld	r0, Z+
    112e:	0d 92       	st	X+, r0
    1130:	8a 95       	dec	r24
    1132:	e1 f7       	brne	.-8      	; 0x112c <menu_init+0xba>
	add_entries(&highscore, high_entr,4);
    1134:	44 e0       	ldi	r20, 0x04	; 4
    1136:	50 e0       	ldi	r21, 0x00	; 0
    1138:	be 01       	movw	r22, r28
    113a:	6b 5e       	subi	r22, 0xEB	; 235
    113c:	7f 4f       	sbci	r23, 0xFF	; 255
    113e:	88 e2       	ldi	r24, 0x28	; 40
    1140:	91 e0       	ldi	r25, 0x01	; 1
    1142:	0e 94 74 07 	call	0xee8	; 0xee8 <add_entries>
	add_sub_menu(&main_menu, &highscore);
    1146:	68 e2       	ldi	r22, 0x28	; 40
    1148:	71 e0       	ldi	r23, 0x01	; 1
    114a:	82 e5       	ldi	r24, 0x52	; 82
    114c:	91 e0       	ldi	r25, 0x01	; 1
    114e:	0e 94 c8 07 	call	0xf90	; 0xf90 <add_sub_menu>
	
}
    1152:	6c 96       	adiw	r28, 0x1c	; 28
    1154:	0f b6       	in	r0, 0x3f	; 63
    1156:	f8 94       	cli
    1158:	de bf       	out	0x3e, r29	; 62
    115a:	0f be       	out	0x3f, r0	; 63
    115c:	cd bf       	out	0x3d, r28	; 61
    115e:	df 91       	pop	r29
    1160:	cf 91       	pop	r28
    1162:	08 95       	ret

00001164 <menu_run_display>:
	//
	
Menu* current_menu = &main_menu;

void menu_run_display(){
	oled_clear_screen();
    1164:	0e 94 23 0a 	call	0x1446	; 0x1446 <oled_clear_screen>
	current_menu = current_menu->draw(current_menu);
    1168:	80 91 0a 01 	lds	r24, 0x010A
    116c:	90 91 0b 01 	lds	r25, 0x010B
    1170:	dc 01       	movw	r26, r24
    1172:	1c 96       	adiw	r26, 0x0c	; 12
    1174:	ed 91       	ld	r30, X+
    1176:	fc 91       	ld	r31, X
    1178:	1d 97       	sbiw	r26, 0x0d	; 13
    117a:	09 95       	icall
    117c:	90 93 0b 01 	sts	0x010B, r25
    1180:	80 93 0a 01 	sts	0x010A, r24
	oled_refresh();
    1184:	0e 94 b7 0a 	call	0x156e	; 0x156e <oled_refresh>
    1188:	08 95       	ret

0000118a <oled_write_data>:
    118a:	20 91 60 01 	lds	r18, 0x0160
    118e:	30 91 61 01 	lds	r19, 0x0161
    1192:	23 2b       	or	r18, r19
    1194:	f9 f0       	breq	.+62     	; 0x11d4 <oled_write_data+0x4a>
    1196:	20 91 78 02 	lds	r18, 0x0278
    119a:	30 91 79 02 	lds	r19, 0x0279
    119e:	21 15       	cp	r18, r1
    11a0:	94 e0       	ldi	r25, 0x04	; 4
    11a2:	39 07       	cpc	r19, r25
    11a4:	2c f0       	brlt	.+10     	; 0x11b0 <oled_write_data+0x26>
    11a6:	8f e5       	ldi	r24, 0x5F	; 95
    11a8:	92 e0       	ldi	r25, 0x02	; 2
    11aa:	0e 94 35 11 	call	0x226a	; 0x226a <puts>
    11ae:	08 95       	ret
    11b0:	40 91 64 01 	lds	r20, 0x0164
    11b4:	50 91 65 01 	lds	r21, 0x0165
    11b8:	fa 01       	movw	r30, r20
    11ba:	e2 0f       	add	r30, r18
    11bc:	f3 1f       	adc	r31, r19
    11be:	80 83       	st	Z, r24
    11c0:	80 91 78 02 	lds	r24, 0x0278
    11c4:	90 91 79 02 	lds	r25, 0x0279
    11c8:	01 96       	adiw	r24, 0x01	; 1
    11ca:	90 93 79 02 	sts	0x0279, r25
    11ce:	80 93 78 02 	sts	0x0278, r24
    11d2:	08 95       	ret
    11d4:	e0 91 62 01 	lds	r30, 0x0162
    11d8:	f0 91 63 01 	lds	r31, 0x0163
    11dc:	80 83       	st	Z, r24
    11de:	08 95       	ret

000011e0 <oled_print_char>:
    11e0:	ef 92       	push	r14
    11e2:	ff 92       	push	r15
    11e4:	0f 93       	push	r16
    11e6:	1f 93       	push	r17
    11e8:	cf 93       	push	r28
    11ea:	df 93       	push	r29
    11ec:	68 30       	cpi	r22, 0x08	; 8
    11ee:	59 f4       	brne	.+22     	; 0x1206 <oled_print_char+0x26>
    11f0:	08 2f       	mov	r16, r24
    11f2:	10 e0       	ldi	r17, 0x00	; 0
    11f4:	00 0f       	add	r16, r16
    11f6:	11 1f       	adc	r17, r17
    11f8:	00 0f       	add	r16, r16
    11fa:	11 1f       	adc	r17, r17
    11fc:	00 0f       	add	r16, r16
    11fe:	11 1f       	adc	r17, r17
    1200:	0b 50       	subi	r16, 0x0B	; 11
    1202:	1d 4f       	sbci	r17, 0xFD	; 253
    1204:	1a c0       	rjmp	.+52     	; 0x123a <oled_print_char+0x5a>
    1206:	65 30       	cpi	r22, 0x05	; 5
    1208:	71 f4       	brne	.+28     	; 0x1226 <oled_print_char+0x46>
    120a:	08 2f       	mov	r16, r24
    120c:	10 e0       	ldi	r17, 0x00	; 0
    120e:	00 52       	subi	r16, 0x20	; 32
    1210:	11 09       	sbc	r17, r1
    1212:	c8 01       	movw	r24, r16
    1214:	88 0f       	add	r24, r24
    1216:	99 1f       	adc	r25, r25
    1218:	88 0f       	add	r24, r24
    121a:	99 1f       	adc	r25, r25
    121c:	08 0f       	add	r16, r24
    121e:	19 1f       	adc	r17, r25
    1220:	06 5e       	subi	r16, 0xE6	; 230
    1222:	1d 4f       	sbci	r17, 0xFD	; 253
    1224:	0a c0       	rjmp	.+20     	; 0x123a <oled_print_char+0x5a>
    1226:	64 30       	cpi	r22, 0x04	; 4
    1228:	41 f4       	brne	.+16     	; 0x123a <oled_print_char+0x5a>
    122a:	08 2f       	mov	r16, r24
    122c:	10 e0       	ldi	r17, 0x00	; 0
    122e:	00 0f       	add	r16, r16
    1230:	11 1f       	adc	r17, r17
    1232:	00 0f       	add	r16, r16
    1234:	11 1f       	adc	r17, r17
    1236:	02 5e       	subi	r16, 0xE2	; 226
    1238:	1f 4f       	sbci	r17, 0xFF	; 255
    123a:	45 2b       	or	r20, r21
    123c:	31 f0       	breq	.+12     	; 0x124a <oled_print_char+0x6a>
    123e:	e6 2e       	mov	r14, r22
    1240:	f1 2c       	mov	r15, r1
    1242:	1e 14       	cp	r1, r14
    1244:	1f 04       	cpc	r1, r15
    1246:	9c f0       	brlt	.+38     	; 0x126e <oled_print_char+0x8e>
    1248:	1f c0       	rjmp	.+62     	; 0x1288 <oled_print_char+0xa8>
    124a:	e6 2e       	mov	r14, r22
    124c:	f1 2c       	mov	r15, r1
    124e:	1e 14       	cp	r1, r14
    1250:	1f 04       	cpc	r1, r15
    1252:	d4 f4       	brge	.+52     	; 0x1288 <oled_print_char+0xa8>
    1254:	c0 e0       	ldi	r28, 0x00	; 0
    1256:	d0 e0       	ldi	r29, 0x00	; 0
    1258:	fe 01       	movw	r30, r28
    125a:	e0 0f       	add	r30, r16
    125c:	f1 1f       	adc	r31, r17
    125e:	84 91       	lpm	r24, Z
    1260:	0e 94 c5 08 	call	0x118a	; 0x118a <oled_write_data>
    1264:	21 96       	adiw	r28, 0x01	; 1
    1266:	ce 15       	cp	r28, r14
    1268:	df 05       	cpc	r29, r15
    126a:	b4 f3       	brlt	.-20     	; 0x1258 <oled_print_char+0x78>
    126c:	0d c0       	rjmp	.+26     	; 0x1288 <oled_print_char+0xa8>
    126e:	c0 e0       	ldi	r28, 0x00	; 0
    1270:	d0 e0       	ldi	r29, 0x00	; 0
    1272:	fe 01       	movw	r30, r28
    1274:	e0 0f       	add	r30, r16
    1276:	f1 1f       	adc	r31, r17
    1278:	84 91       	lpm	r24, Z
    127a:	80 95       	com	r24
    127c:	0e 94 c5 08 	call	0x118a	; 0x118a <oled_write_data>
    1280:	21 96       	adiw	r28, 0x01	; 1
    1282:	ce 15       	cp	r28, r14
    1284:	df 05       	cpc	r29, r15
    1286:	ac f3       	brlt	.-22     	; 0x1272 <oled_print_char+0x92>
    1288:	df 91       	pop	r29
    128a:	cf 91       	pop	r28
    128c:	1f 91       	pop	r17
    128e:	0f 91       	pop	r16
    1290:	ff 90       	pop	r15
    1292:	ef 90       	pop	r14
    1294:	08 95       	ret

00001296 <oled_read_data>:
    1296:	80 91 60 01 	lds	r24, 0x0160
    129a:	90 91 61 01 	lds	r25, 0x0161
    129e:	89 2b       	or	r24, r25
    12a0:	b9 f0       	breq	.+46     	; 0x12d0 <oled_read_data+0x3a>
    12a2:	80 91 78 02 	lds	r24, 0x0278
    12a6:	90 91 79 02 	lds	r25, 0x0279
    12aa:	81 15       	cp	r24, r1
    12ac:	24 e0       	ldi	r18, 0x04	; 4
    12ae:	92 07       	cpc	r25, r18
    12b0:	34 f0       	brlt	.+12     	; 0x12be <oled_read_data+0x28>
    12b2:	8f e5       	ldi	r24, 0x5F	; 95
    12b4:	92 e0       	ldi	r25, 0x02	; 2
    12b6:	0e 94 35 11 	call	0x226a	; 0x226a <puts>
    12ba:	8f ef       	ldi	r24, 0xFF	; 255
    12bc:	08 95       	ret
    12be:	20 91 64 01 	lds	r18, 0x0164
    12c2:	30 91 65 01 	lds	r19, 0x0165
    12c6:	f9 01       	movw	r30, r18
    12c8:	e8 0f       	add	r30, r24
    12ca:	f9 1f       	adc	r31, r25
    12cc:	80 81       	ld	r24, Z
    12ce:	08 95       	ret
    12d0:	80 e0       	ldi	r24, 0x00	; 0
    12d2:	08 95       	ret

000012d4 <oled_goto_line>:
    12d4:	40 91 60 01 	lds	r20, 0x0160
    12d8:	50 91 61 01 	lds	r21, 0x0161
    12dc:	45 2b       	or	r20, r21
    12de:	d1 f0       	breq	.+52     	; 0x1314 <oled_goto_line+0x40>
    12e0:	20 91 78 02 	lds	r18, 0x0278
    12e4:	30 91 79 02 	lds	r19, 0x0279
    12e8:	2f 77       	andi	r18, 0x7F	; 127
    12ea:	30 78       	andi	r19, 0x80	; 128
    12ec:	33 23       	and	r19, r19
    12ee:	34 f4       	brge	.+12     	; 0x12fc <oled_goto_line+0x28>
    12f0:	21 50       	subi	r18, 0x01	; 1
    12f2:	31 09       	sbc	r19, r1
    12f4:	20 68       	ori	r18, 0x80	; 128
    12f6:	3f 6f       	ori	r19, 0xFF	; 255
    12f8:	2f 5f       	subi	r18, 0xFF	; 255
    12fa:	3f 4f       	sbci	r19, 0xFF	; 255
    12fc:	96 95       	lsr	r25
    12fe:	98 2f       	mov	r25, r24
    1300:	88 27       	eor	r24, r24
    1302:	97 95       	ror	r25
    1304:	87 95       	ror	r24
    1306:	28 0f       	add	r18, r24
    1308:	39 1f       	adc	r19, r25
    130a:	30 93 79 02 	sts	0x0279, r19
    130e:	20 93 78 02 	sts	0x0278, r18
    1312:	08 95       	ret
    1314:	80 55       	subi	r24, 0x50	; 80
    1316:	e0 91 66 01 	lds	r30, 0x0166
    131a:	f0 91 67 01 	lds	r31, 0x0167
    131e:	80 83       	st	Z, r24
    1320:	08 95       	ret

00001322 <oled_goto_column>:
    1322:	20 91 60 01 	lds	r18, 0x0160
    1326:	30 91 61 01 	lds	r19, 0x0161
    132a:	23 2b       	or	r18, r19
    132c:	c1 f0       	breq	.+48     	; 0x135e <oled_goto_column+0x3c>
    132e:	40 91 78 02 	lds	r20, 0x0278
    1332:	50 91 79 02 	lds	r21, 0x0279
    1336:	9a 01       	movw	r18, r20
    1338:	2f 77       	andi	r18, 0x7F	; 127
    133a:	30 78       	andi	r19, 0x80	; 128
    133c:	33 23       	and	r19, r19
    133e:	34 f4       	brge	.+12     	; 0x134c <oled_goto_column+0x2a>
    1340:	21 50       	subi	r18, 0x01	; 1
    1342:	31 09       	sbc	r19, r1
    1344:	20 68       	ori	r18, 0x80	; 128
    1346:	3f 6f       	ori	r19, 0xFF	; 255
    1348:	2f 5f       	subi	r18, 0xFF	; 255
    134a:	3f 4f       	sbci	r19, 0xFF	; 255
    134c:	42 1b       	sub	r20, r18
    134e:	53 0b       	sbc	r21, r19
    1350:	84 0f       	add	r24, r20
    1352:	95 1f       	adc	r25, r21
    1354:	90 93 79 02 	sts	0x0279, r25
    1358:	80 93 78 02 	sts	0x0278, r24
    135c:	08 95       	ret
    135e:	e0 91 66 01 	lds	r30, 0x0166
    1362:	f0 91 67 01 	lds	r31, 0x0167
    1366:	10 82       	st	Z, r1
    1368:	e0 91 66 01 	lds	r30, 0x0166
    136c:	f0 91 67 01 	lds	r31, 0x0167
    1370:	80 e1       	ldi	r24, 0x10	; 16
    1372:	80 83       	st	Z, r24
    1374:	08 95       	ret

00001376 <oled_print_string>:
    1376:	6f 92       	push	r6
    1378:	7f 92       	push	r7
    137a:	8f 92       	push	r8
    137c:	9f 92       	push	r9
    137e:	af 92       	push	r10
    1380:	bf 92       	push	r11
    1382:	cf 92       	push	r12
    1384:	df 92       	push	r13
    1386:	ef 92       	push	r14
    1388:	ff 92       	push	r15
    138a:	0f 93       	push	r16
    138c:	1f 93       	push	r17
    138e:	cf 93       	push	r28
    1390:	df 93       	push	r29
    1392:	ec 01       	movw	r28, r24
    1394:	96 2e       	mov	r9, r22
    1396:	74 2e       	mov	r7, r20
    1398:	82 2e       	mov	r8, r18
    139a:	86 2f       	mov	r24, r22
    139c:	90 e0       	ldi	r25, 0x00	; 0
    139e:	0e 94 91 09 	call	0x1322	; 0x1322 <oled_goto_column>
    13a2:	87 2d       	mov	r24, r7
    13a4:	90 e0       	ldi	r25, 0x00	; 0
    13a6:	0e 94 6a 09 	call	0x12d4	; 0x12d4 <oled_goto_line>
    13aa:	fe 01       	movw	r30, r28
    13ac:	01 90       	ld	r0, Z+
    13ae:	00 20       	and	r0, r0
    13b0:	e9 f7       	brne	.-6      	; 0x13ac <oled_print_string+0x36>
    13b2:	31 97       	sbiw	r30, 0x01	; 1
    13b4:	6f 01       	movw	r12, r30
    13b6:	cc 1a       	sub	r12, r28
    13b8:	dd 0a       	sbc	r13, r29
    13ba:	1c 14       	cp	r1, r12
    13bc:	1d 04       	cpc	r1, r13
    13be:	24 f5       	brge	.+72     	; 0x1408 <oled_print_string+0x92>
    13c0:	7e 01       	movw	r14, r28
    13c2:	c0 e0       	ldi	r28, 0x00	; 0
    13c4:	d0 e0       	ldi	r29, 0x00	; 0
    13c6:	8f e7       	ldi	r24, 0x7F	; 127
    13c8:	90 e0       	ldi	r25, 0x00	; 0
    13ca:	5c 01       	movw	r10, r24
    13cc:	a8 18       	sub	r10, r8
    13ce:	b1 08       	sbc	r11, r1
    13d0:	61 2c       	mov	r6, r1
    13d2:	a8 01       	movw	r20, r16
    13d4:	68 2d       	mov	r22, r8
    13d6:	f7 01       	movw	r30, r14
    13d8:	81 91       	ld	r24, Z+
    13da:	7f 01       	movw	r14, r30
    13dc:	0e 94 f0 08 	call	0x11e0	; 0x11e0 <oled_print_char>
    13e0:	98 0c       	add	r9, r8
    13e2:	89 2d       	mov	r24, r9
    13e4:	90 e0       	ldi	r25, 0x00	; 0
    13e6:	a8 16       	cp	r10, r24
    13e8:	b9 06       	cpc	r11, r25
    13ea:	54 f4       	brge	.+20     	; 0x1400 <oled_print_string+0x8a>
    13ec:	73 94       	inc	r7
    13ee:	80 e0       	ldi	r24, 0x00	; 0
    13f0:	90 e0       	ldi	r25, 0x00	; 0
    13f2:	0e 94 91 09 	call	0x1322	; 0x1322 <oled_goto_column>
    13f6:	87 2d       	mov	r24, r7
    13f8:	90 e0       	ldi	r25, 0x00	; 0
    13fa:	0e 94 6a 09 	call	0x12d4	; 0x12d4 <oled_goto_line>
    13fe:	96 2c       	mov	r9, r6
    1400:	21 96       	adiw	r28, 0x01	; 1
    1402:	cc 16       	cp	r12, r28
    1404:	dd 06       	cpc	r13, r29
    1406:	29 f7       	brne	.-54     	; 0x13d2 <oled_print_string+0x5c>
    1408:	df 91       	pop	r29
    140a:	cf 91       	pop	r28
    140c:	1f 91       	pop	r17
    140e:	0f 91       	pop	r16
    1410:	ff 90       	pop	r15
    1412:	ef 90       	pop	r14
    1414:	df 90       	pop	r13
    1416:	cf 90       	pop	r12
    1418:	bf 90       	pop	r11
    141a:	af 90       	pop	r10
    141c:	9f 90       	pop	r9
    141e:	8f 90       	pop	r8
    1420:	7f 90       	pop	r7
    1422:	6f 90       	pop	r6
    1424:	08 95       	ret

00001426 <oled_clear_line>:
    1426:	cf 93       	push	r28
    1428:	0e 94 6a 09 	call	0x12d4	; 0x12d4 <oled_goto_line>
    142c:	80 e0       	ldi	r24, 0x00	; 0
    142e:	90 e0       	ldi	r25, 0x00	; 0
    1430:	0e 94 91 09 	call	0x1322	; 0x1322 <oled_goto_column>
    1434:	c0 e0       	ldi	r28, 0x00	; 0
    1436:	80 e0       	ldi	r24, 0x00	; 0
    1438:	0e 94 c5 08 	call	0x118a	; 0x118a <oled_write_data>
    143c:	cf 5f       	subi	r28, 0xFF	; 255
    143e:	c0 38       	cpi	r28, 0x80	; 128
    1440:	d1 f7       	brne	.-12     	; 0x1436 <oled_clear_line+0x10>
    1442:	cf 91       	pop	r28
    1444:	08 95       	ret

00001446 <oled_clear_screen>:
    1446:	cf 93       	push	r28
    1448:	df 93       	push	r29
    144a:	c0 e0       	ldi	r28, 0x00	; 0
    144c:	d0 e0       	ldi	r29, 0x00	; 0
    144e:	ce 01       	movw	r24, r28
    1450:	0e 94 13 0a 	call	0x1426	; 0x1426 <oled_clear_line>
    1454:	21 96       	adiw	r28, 0x01	; 1
    1456:	c8 30       	cpi	r28, 0x08	; 8
    1458:	d1 05       	cpc	r29, r1
    145a:	c9 f7       	brne	.-14     	; 0x144e <oled_clear_screen+0x8>
    145c:	df 91       	pop	r29
    145e:	cf 91       	pop	r28
    1460:	08 95       	ret

00001462 <oled_init>:
    1462:	e0 91 66 01 	lds	r30, 0x0166
    1466:	f0 91 67 01 	lds	r31, 0x0167
    146a:	8e ea       	ldi	r24, 0xAE	; 174
    146c:	80 83       	st	Z, r24
    146e:	e0 91 66 01 	lds	r30, 0x0166
    1472:	f0 91 67 01 	lds	r31, 0x0167
    1476:	81 ea       	ldi	r24, 0xA1	; 161
    1478:	80 83       	st	Z, r24
    147a:	e0 91 66 01 	lds	r30, 0x0166
    147e:	f0 91 67 01 	lds	r31, 0x0167
    1482:	8a ed       	ldi	r24, 0xDA	; 218
    1484:	80 83       	st	Z, r24
    1486:	e0 91 66 01 	lds	r30, 0x0166
    148a:	f0 91 67 01 	lds	r31, 0x0167
    148e:	82 e1       	ldi	r24, 0x12	; 18
    1490:	80 83       	st	Z, r24
    1492:	e0 91 66 01 	lds	r30, 0x0166
    1496:	f0 91 67 01 	lds	r31, 0x0167
    149a:	88 ec       	ldi	r24, 0xC8	; 200
    149c:	80 83       	st	Z, r24
    149e:	e0 91 66 01 	lds	r30, 0x0166
    14a2:	f0 91 67 01 	lds	r31, 0x0167
    14a6:	88 ea       	ldi	r24, 0xA8	; 168
    14a8:	80 83       	st	Z, r24
    14aa:	e0 91 66 01 	lds	r30, 0x0166
    14ae:	f0 91 67 01 	lds	r31, 0x0167
    14b2:	8f e3       	ldi	r24, 0x3F	; 63
    14b4:	80 83       	st	Z, r24
    14b6:	e0 91 66 01 	lds	r30, 0x0166
    14ba:	f0 91 67 01 	lds	r31, 0x0167
    14be:	85 ed       	ldi	r24, 0xD5	; 213
    14c0:	80 83       	st	Z, r24
    14c2:	e0 91 66 01 	lds	r30, 0x0166
    14c6:	f0 91 67 01 	lds	r31, 0x0167
    14ca:	80 e8       	ldi	r24, 0x80	; 128
    14cc:	80 83       	st	Z, r24
    14ce:	e0 91 66 01 	lds	r30, 0x0166
    14d2:	f0 91 67 01 	lds	r31, 0x0167
    14d6:	81 e8       	ldi	r24, 0x81	; 129
    14d8:	80 83       	st	Z, r24
    14da:	e0 91 66 01 	lds	r30, 0x0166
    14de:	f0 91 67 01 	lds	r31, 0x0167
    14e2:	80 e5       	ldi	r24, 0x50	; 80
    14e4:	80 83       	st	Z, r24
    14e6:	e0 91 66 01 	lds	r30, 0x0166
    14ea:	f0 91 67 01 	lds	r31, 0x0167
    14ee:	89 ed       	ldi	r24, 0xD9	; 217
    14f0:	80 83       	st	Z, r24
    14f2:	e0 91 66 01 	lds	r30, 0x0166
    14f6:	f0 91 67 01 	lds	r31, 0x0167
    14fa:	81 e2       	ldi	r24, 0x21	; 33
    14fc:	80 83       	st	Z, r24
    14fe:	e0 91 66 01 	lds	r30, 0x0166
    1502:	f0 91 67 01 	lds	r31, 0x0167
    1506:	80 e2       	ldi	r24, 0x20	; 32
    1508:	80 83       	st	Z, r24
    150a:	e0 91 66 01 	lds	r30, 0x0166
    150e:	f0 91 67 01 	lds	r31, 0x0167
    1512:	82 e0       	ldi	r24, 0x02	; 2
    1514:	80 83       	st	Z, r24
    1516:	e0 91 66 01 	lds	r30, 0x0166
    151a:	f0 91 67 01 	lds	r31, 0x0167
    151e:	8b ed       	ldi	r24, 0xDB	; 219
    1520:	80 83       	st	Z, r24
    1522:	e0 91 66 01 	lds	r30, 0x0166
    1526:	f0 91 67 01 	lds	r31, 0x0167
    152a:	80 e3       	ldi	r24, 0x30	; 48
    152c:	80 83       	st	Z, r24
    152e:	e0 91 66 01 	lds	r30, 0x0166
    1532:	f0 91 67 01 	lds	r31, 0x0167
    1536:	8d ea       	ldi	r24, 0xAD	; 173
    1538:	80 83       	st	Z, r24
    153a:	e0 91 66 01 	lds	r30, 0x0166
    153e:	f0 91 67 01 	lds	r31, 0x0167
    1542:	10 82       	st	Z, r1
    1544:	e0 91 66 01 	lds	r30, 0x0166
    1548:	f0 91 67 01 	lds	r31, 0x0167
    154c:	84 ea       	ldi	r24, 0xA4	; 164
    154e:	80 83       	st	Z, r24
    1550:	e0 91 66 01 	lds	r30, 0x0166
    1554:	f0 91 67 01 	lds	r31, 0x0167
    1558:	86 ea       	ldi	r24, 0xA6	; 166
    155a:	80 83       	st	Z, r24
    155c:	e0 91 66 01 	lds	r30, 0x0166
    1560:	f0 91 67 01 	lds	r31, 0x0167
    1564:	8f ea       	ldi	r24, 0xAF	; 175
    1566:	80 83       	st	Z, r24
    1568:	0e 94 23 0a 	call	0x1446	; 0x1446 <oled_clear_screen>
    156c:	08 95       	ret

0000156e <oled_refresh>:
    156e:	cf 93       	push	r28
    1570:	e0 91 66 01 	lds	r30, 0x0166
    1574:	f0 91 67 01 	lds	r31, 0x0167
    1578:	10 82       	st	Z, r1
    157a:	e0 91 66 01 	lds	r30, 0x0166
    157e:	f0 91 67 01 	lds	r31, 0x0167
    1582:	80 e1       	ldi	r24, 0x10	; 16
    1584:	80 83       	st	Z, r24
    1586:	80 91 60 01 	lds	r24, 0x0160
    158a:	90 91 61 01 	lds	r25, 0x0161
    158e:	89 2b       	or	r24, r25
    1590:	21 f1       	breq	.+72     	; 0x15da <oled_refresh+0x6c>
    1592:	40 e0       	ldi	r20, 0x00	; 0
    1594:	50 e0       	ldi	r21, 0x00	; 0
    1596:	60 eb       	ldi	r22, 0xB0	; 176
    1598:	c0 e0       	ldi	r28, 0x00	; 0
    159a:	70 e0       	ldi	r23, 0x00	; 0
    159c:	e0 91 66 01 	lds	r30, 0x0166
    15a0:	f0 91 67 01 	lds	r31, 0x0167
    15a4:	60 83       	st	Z, r22
    15a6:	8c 2f       	mov	r24, r28
    15a8:	97 2f       	mov	r25, r23
    15aa:	e0 91 62 01 	lds	r30, 0x0162
    15ae:	f0 91 63 01 	lds	r31, 0x0163
    15b2:	9c 01       	movw	r18, r24
    15b4:	24 0f       	add	r18, r20
    15b6:	35 1f       	adc	r19, r21
    15b8:	a0 91 64 01 	lds	r26, 0x0164
    15bc:	b0 91 65 01 	lds	r27, 0x0165
    15c0:	a2 0f       	add	r26, r18
    15c2:	b3 1f       	adc	r27, r19
    15c4:	2c 91       	ld	r18, X
    15c6:	20 83       	st	Z, r18
    15c8:	01 96       	adiw	r24, 0x01	; 1
    15ca:	80 38       	cpi	r24, 0x80	; 128
    15cc:	91 05       	cpc	r25, r1
    15ce:	69 f7       	brne	.-38     	; 0x15aa <oled_refresh+0x3c>
    15d0:	6f 5f       	subi	r22, 0xFF	; 255
    15d2:	40 58       	subi	r20, 0x80	; 128
    15d4:	5f 4f       	sbci	r21, 0xFF	; 255
    15d6:	68 3b       	cpi	r22, 0xB8	; 184
    15d8:	09 f7       	brne	.-62     	; 0x159c <oled_refresh+0x2e>
    15da:	cf 91       	pop	r28
    15dc:	08 95       	ret

000015de <oled_invert_pixel>:
    15de:	cf 93       	push	r28
    15e0:	df 93       	push	r29
    15e2:	eb 01       	movw	r28, r22
    15e4:	0e 94 91 09 	call	0x1322	; 0x1322 <oled_goto_column>
    15e8:	ce 01       	movw	r24, r28
    15ea:	dd 23       	and	r29, r29
    15ec:	0c f4       	brge	.+2      	; 0x15f0 <oled_invert_pixel+0x12>
    15ee:	07 96       	adiw	r24, 0x07	; 7
    15f0:	95 95       	asr	r25
    15f2:	87 95       	ror	r24
    15f4:	95 95       	asr	r25
    15f6:	87 95       	ror	r24
    15f8:	95 95       	asr	r25
    15fa:	87 95       	ror	r24
    15fc:	0e 94 6a 09 	call	0x12d4	; 0x12d4 <oled_goto_line>
    1600:	0e 94 4b 09 	call	0x1296	; 0x1296 <oled_read_data>
    1604:	be 01       	movw	r22, r28
    1606:	67 70       	andi	r22, 0x07	; 7
    1608:	70 78       	andi	r23, 0x80	; 128
    160a:	77 23       	and	r23, r23
    160c:	34 f4       	brge	.+12     	; 0x161a <oled_invert_pixel+0x3c>
    160e:	61 50       	subi	r22, 0x01	; 1
    1610:	71 09       	sbc	r23, r1
    1612:	68 6f       	ori	r22, 0xF8	; 248
    1614:	7f 6f       	ori	r23, 0xFF	; 255
    1616:	6f 5f       	subi	r22, 0xFF	; 255
    1618:	7f 4f       	sbci	r23, 0xFF	; 255
    161a:	21 e0       	ldi	r18, 0x01	; 1
    161c:	30 e0       	ldi	r19, 0x00	; 0
    161e:	a9 01       	movw	r20, r18
    1620:	02 c0       	rjmp	.+4      	; 0x1626 <oled_invert_pixel+0x48>
    1622:	44 0f       	add	r20, r20
    1624:	55 1f       	adc	r21, r21
    1626:	6a 95       	dec	r22
    1628:	e2 f7       	brpl	.-8      	; 0x1622 <oled_invert_pixel+0x44>
    162a:	84 27       	eor	r24, r20
    162c:	0e 94 c5 08 	call	0x118a	; 0x118a <oled_write_data>
    1630:	df 91       	pop	r29
    1632:	cf 91       	pop	r28
    1634:	08 95       	ret

00001636 <oled_invert_rectangle>:
    1636:	8f 92       	push	r8
    1638:	9f 92       	push	r9
    163a:	af 92       	push	r10
    163c:	bf 92       	push	r11
    163e:	cf 92       	push	r12
    1640:	df 92       	push	r13
    1642:	ef 92       	push	r14
    1644:	ff 92       	push	r15
    1646:	0f 93       	push	r16
    1648:	1f 93       	push	r17
    164a:	cf 93       	push	r28
    164c:	df 93       	push	r29
    164e:	8c 01       	movw	r16, r24
    1650:	6b 01       	movw	r12, r22
    1652:	5a 01       	movw	r10, r20
    1654:	79 01       	movw	r14, r18
    1656:	84 17       	cp	r24, r20
    1658:	95 07       	cpc	r25, r21
    165a:	b4 f4       	brge	.+44     	; 0x1688 <oled_invert_rectangle+0x52>
    165c:	86 2e       	mov	r8, r22
    165e:	9d 2c       	mov	r9, r13
    1660:	0d c0       	rjmp	.+26     	; 0x167c <oled_invert_rectangle+0x46>
    1662:	be 01       	movw	r22, r28
    1664:	c8 01       	movw	r24, r16
    1666:	0e 94 ef 0a 	call	0x15de	; 0x15de <oled_invert_pixel>
    166a:	21 96       	adiw	r28, 0x01	; 1
    166c:	ce 15       	cp	r28, r14
    166e:	df 05       	cpc	r29, r15
    1670:	c4 f3       	brlt	.-16     	; 0x1662 <oled_invert_rectangle+0x2c>
    1672:	0f 5f       	subi	r16, 0xFF	; 255
    1674:	1f 4f       	sbci	r17, 0xFF	; 255
    1676:	0a 15       	cp	r16, r10
    1678:	1b 05       	cpc	r17, r11
    167a:	34 f4       	brge	.+12     	; 0x1688 <oled_invert_rectangle+0x52>
    167c:	ce 14       	cp	r12, r14
    167e:	df 04       	cpc	r13, r15
    1680:	c4 f7       	brge	.-16     	; 0x1672 <oled_invert_rectangle+0x3c>
    1682:	c8 2d       	mov	r28, r8
    1684:	d9 2d       	mov	r29, r9
    1686:	ed cf       	rjmp	.-38     	; 0x1662 <oled_invert_rectangle+0x2c>
    1688:	df 91       	pop	r29
    168a:	cf 91       	pop	r28
    168c:	1f 91       	pop	r17
    168e:	0f 91       	pop	r16
    1690:	ff 90       	pop	r15
    1692:	ef 90       	pop	r14
    1694:	df 90       	pop	r13
    1696:	cf 90       	pop	r12
    1698:	bf 90       	pop	r11
    169a:	af 90       	pop	r10
    169c:	9f 90       	pop	r9
    169e:	8f 90       	pop	r8
    16a0:	08 95       	ret

000016a2 <spi_master_init>:

void spi_master_init()
{
	
	/* Set MOSI and SCK output, all others input */
	DDRB |= (1<<PB5)|(1<<PB7)|(1 << PB4); //DDB4
    16a2:	87 b3       	in	r24, 0x17	; 23
    16a4:	80 6b       	ori	r24, 0xB0	; 176
    16a6:	87 bb       	out	0x17, r24	; 23
	DDRB &= ~(1 << DDB6);
    16a8:	be 98       	cbi	0x17, 6	; 23
	/* Enable SPI, Master, set clock rate fck/16 */
	SPCR = (1<<SPE)|(1<<MSTR)|(1<<SPI2X);
    16aa:	81 e5       	ldi	r24, 0x51	; 81
    16ac:	8d b9       	out	0x0d, r24	; 13
	set_bit(PORTB,PB4);
    16ae:	c4 9a       	sbi	0x18, 4	; 24
    16b0:	08 95       	ret

000016b2 <spi_master_transmit>:

char spi_master_transmit(char cData)
{
	//clear_bit(PORTB, PB4);
	/* Start transmission */
	SPDR = cData;
    16b2:	8f b9       	out	0x0f, r24	; 15
	
	/* Wait for transmission complete */
	while(!(SPSR & (1<<SPIF)));
    16b4:	77 9b       	sbis	0x0e, 7	; 14
    16b6:	fe cf       	rjmp	.-4      	; 0x16b4 <spi_master_transmit+0x2>
	//set_bit(PORTB,PB4);
	
	return SPDR;
    16b8:	8f b1       	in	r24, 0x0f	; 15
}
    16ba:	08 95       	ret

000016bc <touch_init>:
    16bc:	b8 98       	cbi	0x17, 0	; 23
    16be:	b9 98       	cbi	0x17, 1	; 23
    16c0:	08 95       	ret

000016c2 <uart_putchar>:
    16c2:	5d 9b       	sbis	0x0b, 5	; 11
    16c4:	fe cf       	rjmp	.-4      	; 0x16c2 <uart_putchar>
    16c6:	8c b9       	out	0x0c, r24	; 12
    16c8:	81 e0       	ldi	r24, 0x01	; 1
    16ca:	90 e0       	ldi	r25, 0x00	; 0
    16cc:	08 95       	ret

000016ce <uart_getchar>:
    16ce:	5f 9b       	sbis	0x0b, 7	; 11
    16d0:	fe cf       	rjmp	.-4      	; 0x16ce <uart_getchar>
    16d2:	8c b1       	in	r24, 0x0c	; 12
    16d4:	08 95       	ret

000016d6 <uart_init>:
    16d6:	cf 93       	push	r28
    16d8:	df 93       	push	r29
    16da:	aa 27       	eor	r26, r26
    16dc:	97 fd       	sbrc	r25, 7
    16de:	a0 95       	com	r26
    16e0:	ba 2f       	mov	r27, r26
    16e2:	88 0f       	add	r24, r24
    16e4:	99 1f       	adc	r25, r25
    16e6:	aa 1f       	adc	r26, r26
    16e8:	bb 1f       	adc	r27, r27
    16ea:	88 0f       	add	r24, r24
    16ec:	99 1f       	adc	r25, r25
    16ee:	aa 1f       	adc	r26, r26
    16f0:	bb 1f       	adc	r27, r27
    16f2:	9c 01       	movw	r18, r24
    16f4:	ad 01       	movw	r20, r26
    16f6:	22 0f       	add	r18, r18
    16f8:	33 1f       	adc	r19, r19
    16fa:	44 1f       	adc	r20, r20
    16fc:	55 1f       	adc	r21, r21
    16fe:	22 0f       	add	r18, r18
    1700:	33 1f       	adc	r19, r19
    1702:	44 1f       	adc	r20, r20
    1704:	55 1f       	adc	r21, r21
    1706:	60 e0       	ldi	r22, 0x00	; 0
    1708:	70 e0       	ldi	r23, 0x00	; 0
    170a:	8b e4       	ldi	r24, 0x4B	; 75
    170c:	90 e0       	ldi	r25, 0x00	; 0
    170e:	0e 94 87 0e 	call	0x1d0e	; 0x1d0e <__divmodsi4>
    1712:	e9 01       	movw	r28, r18
    1714:	21 97       	sbiw	r28, 0x01	; 1
    1716:	67 e6       	ldi	r22, 0x67	; 103
    1718:	7b e0       	ldi	r23, 0x0B	; 11
    171a:	81 e6       	ldi	r24, 0x61	; 97
    171c:	9b e0       	ldi	r25, 0x0B	; 11
    171e:	0e 94 d6 10 	call	0x21ac	; 0x21ac <fdevopen>
    1722:	c9 b9       	out	0x09, r28	; 9
    1724:	d0 bd       	out	0x20, r29	; 32
    1726:	88 e1       	ldi	r24, 0x18	; 24
    1728:	8a b9       	out	0x0a, r24	; 10
    172a:	8e e8       	ldi	r24, 0x8E	; 142
    172c:	80 bd       	out	0x20, r24	; 32
    172e:	81 e0       	ldi	r24, 0x01	; 1
    1730:	90 e0       	ldi	r25, 0x00	; 0
    1732:	df 91       	pop	r29
    1734:	cf 91       	pop	r28
    1736:	08 95       	ret
    1738:	63 d1       	rcall	.+710    	; 0x1a00 <__fp_pscA>
    173a:	58 f0       	brcs	.+22     	; 0x1752 <uart_init+0x7c>
    173c:	80 e8       	ldi	r24, 0x80	; 128
    173e:	91 e0       	ldi	r25, 0x01	; 1
    1740:	09 f4       	brne	.+2      	; 0x1744 <uart_init+0x6e>
    1742:	9e ef       	ldi	r25, 0xFE	; 254
    1744:	64 d1       	rcall	.+712    	; 0x1a0e <__fp_pscB>
    1746:	28 f0       	brcs	.+10     	; 0x1752 <uart_init+0x7c>
    1748:	40 e8       	ldi	r20, 0x80	; 128
    174a:	51 e0       	ldi	r21, 0x01	; 1
    174c:	59 f4       	brne	.+22     	; 0x1764 <atan2+0xe>
    174e:	5e ef       	ldi	r21, 0xFE	; 254
    1750:	09 c0       	rjmp	.+18     	; 0x1764 <atan2+0xe>
    1752:	2e c1       	rjmp	.+604    	; 0x19b0 <__fp_nan>
    1754:	96 c1       	rjmp	.+812    	; 0x1a82 <__fp_zero>

00001756 <atan2>:
    1756:	e9 2f       	mov	r30, r25
    1758:	e0 78       	andi	r30, 0x80	; 128
    175a:	71 d1       	rcall	.+738    	; 0x1a3e <__fp_split3>
    175c:	68 f3       	brcs	.-38     	; 0x1738 <uart_init+0x62>
    175e:	09 2e       	mov	r0, r25
    1760:	05 2a       	or	r0, r21
    1762:	c1 f3       	breq	.-16     	; 0x1754 <uart_init+0x7e>
    1764:	26 17       	cp	r18, r22
    1766:	37 07       	cpc	r19, r23
    1768:	48 07       	cpc	r20, r24
    176a:	59 07       	cpc	r21, r25
    176c:	38 f0       	brcs	.+14     	; 0x177c <atan2+0x26>
    176e:	0e 2e       	mov	r0, r30
    1770:	07 f8       	bld	r0, 7
    1772:	e0 25       	eor	r30, r0
    1774:	69 f0       	breq	.+26     	; 0x1790 <atan2+0x3a>
    1776:	e0 25       	eor	r30, r0
    1778:	e0 64       	ori	r30, 0x40	; 64
    177a:	0a c0       	rjmp	.+20     	; 0x1790 <atan2+0x3a>
    177c:	ef 63       	ori	r30, 0x3F	; 63
    177e:	07 f8       	bld	r0, 7
    1780:	00 94       	com	r0
    1782:	07 fa       	bst	r0, 7
    1784:	db 01       	movw	r26, r22
    1786:	b9 01       	movw	r22, r18
    1788:	9d 01       	movw	r18, r26
    178a:	dc 01       	movw	r26, r24
    178c:	ca 01       	movw	r24, r20
    178e:	ad 01       	movw	r20, r26
    1790:	ef 93       	push	r30
    1792:	41 d0       	rcall	.+130    	; 0x1816 <__divsf3_pse>
    1794:	43 d1       	rcall	.+646    	; 0x1a1c <__fp_round>
    1796:	0a d0       	rcall	.+20     	; 0x17ac <atan>
    1798:	5f 91       	pop	r21
    179a:	55 23       	and	r21, r21
    179c:	31 f0       	breq	.+12     	; 0x17aa <atan2+0x54>
    179e:	2b ed       	ldi	r18, 0xDB	; 219
    17a0:	3f e0       	ldi	r19, 0x0F	; 15
    17a2:	49 e4       	ldi	r20, 0x49	; 73
    17a4:	50 fd       	sbrc	r21, 0
    17a6:	49 ec       	ldi	r20, 0xC9	; 201
    17a8:	23 c2       	rjmp	.+1094   	; 0x1bf0 <__addsf3>
    17aa:	08 95       	ret

000017ac <atan>:
    17ac:	df 93       	push	r29
    17ae:	dd 27       	eor	r29, r29
    17b0:	b9 2f       	mov	r27, r25
    17b2:	bf 77       	andi	r27, 0x7F	; 127
    17b4:	40 e8       	ldi	r20, 0x80	; 128
    17b6:	5f e3       	ldi	r21, 0x3F	; 63
    17b8:	16 16       	cp	r1, r22
    17ba:	17 06       	cpc	r1, r23
    17bc:	48 07       	cpc	r20, r24
    17be:	5b 07       	cpc	r21, r27
    17c0:	10 f4       	brcc	.+4      	; 0x17c6 <atan+0x1a>
    17c2:	d9 2f       	mov	r29, r25
    17c4:	65 d1       	rcall	.+714    	; 0x1a90 <inverse>
    17c6:	9f 93       	push	r25
    17c8:	8f 93       	push	r24
    17ca:	7f 93       	push	r23
    17cc:	6f 93       	push	r22
    17ce:	0c d2       	rcall	.+1048   	; 0x1be8 <square>
    17d0:	e0 e7       	ldi	r30, 0x70	; 112
    17d2:	f0 e0       	ldi	r31, 0x00	; 0
    17d4:	f0 d0       	rcall	.+480    	; 0x19b6 <__fp_powser>
    17d6:	22 d1       	rcall	.+580    	; 0x1a1c <__fp_round>
    17d8:	2f 91       	pop	r18
    17da:	3f 91       	pop	r19
    17dc:	4f 91       	pop	r20
    17de:	5f 91       	pop	r21
    17e0:	6a d1       	rcall	.+724    	; 0x1ab6 <__mulsf3x>
    17e2:	dd 23       	and	r29, r29
    17e4:	49 f0       	breq	.+18     	; 0x17f8 <atan+0x4c>
    17e6:	90 58       	subi	r25, 0x80	; 128
    17e8:	a2 ea       	ldi	r26, 0xA2	; 162
    17ea:	2a ed       	ldi	r18, 0xDA	; 218
    17ec:	3f e0       	ldi	r19, 0x0F	; 15
    17ee:	49 ec       	ldi	r20, 0xC9	; 201
    17f0:	5f e3       	ldi	r21, 0x3F	; 63
    17f2:	d0 78       	andi	r29, 0x80	; 128
    17f4:	5d 27       	eor	r21, r29
    17f6:	0d d2       	rcall	.+1050   	; 0x1c12 <__addsf3x>
    17f8:	df 91       	pop	r29
    17fa:	10 c1       	rjmp	.+544    	; 0x1a1c <__fp_round>
    17fc:	08 d1       	rcall	.+528    	; 0x1a0e <__fp_pscB>
    17fe:	40 f0       	brcs	.+16     	; 0x1810 <atan+0x64>
    1800:	ff d0       	rcall	.+510    	; 0x1a00 <__fp_pscA>
    1802:	30 f0       	brcs	.+12     	; 0x1810 <atan+0x64>
    1804:	21 f4       	brne	.+8      	; 0x180e <atan+0x62>
    1806:	5f 3f       	cpi	r21, 0xFF	; 255
    1808:	19 f0       	breq	.+6      	; 0x1810 <atan+0x64>
    180a:	cc c0       	rjmp	.+408    	; 0x19a4 <__fp_inf>
    180c:	51 11       	cpse	r21, r1
    180e:	3a c1       	rjmp	.+628    	; 0x1a84 <__fp_szero>
    1810:	cf c0       	rjmp	.+414    	; 0x19b0 <__fp_nan>

00001812 <__divsf3x>:
    1812:	15 d1       	rcall	.+554    	; 0x1a3e <__fp_split3>
    1814:	98 f3       	brcs	.-26     	; 0x17fc <atan+0x50>

00001816 <__divsf3_pse>:
    1816:	99 23       	and	r25, r25
    1818:	c9 f3       	breq	.-14     	; 0x180c <atan+0x60>
    181a:	55 23       	and	r21, r21
    181c:	b1 f3       	breq	.-20     	; 0x180a <atan+0x5e>
    181e:	95 1b       	sub	r25, r21
    1820:	55 0b       	sbc	r21, r21
    1822:	bb 27       	eor	r27, r27
    1824:	aa 27       	eor	r26, r26
    1826:	62 17       	cp	r22, r18
    1828:	73 07       	cpc	r23, r19
    182a:	84 07       	cpc	r24, r20
    182c:	38 f0       	brcs	.+14     	; 0x183c <__divsf3_pse+0x26>
    182e:	9f 5f       	subi	r25, 0xFF	; 255
    1830:	5f 4f       	sbci	r21, 0xFF	; 255
    1832:	22 0f       	add	r18, r18
    1834:	33 1f       	adc	r19, r19
    1836:	44 1f       	adc	r20, r20
    1838:	aa 1f       	adc	r26, r26
    183a:	a9 f3       	breq	.-22     	; 0x1826 <__divsf3_pse+0x10>
    183c:	33 d0       	rcall	.+102    	; 0x18a4 <__divsf3_pse+0x8e>
    183e:	0e 2e       	mov	r0, r30
    1840:	3a f0       	brmi	.+14     	; 0x1850 <__divsf3_pse+0x3a>
    1842:	e0 e8       	ldi	r30, 0x80	; 128
    1844:	30 d0       	rcall	.+96     	; 0x18a6 <__divsf3_pse+0x90>
    1846:	91 50       	subi	r25, 0x01	; 1
    1848:	50 40       	sbci	r21, 0x00	; 0
    184a:	e6 95       	lsr	r30
    184c:	00 1c       	adc	r0, r0
    184e:	ca f7       	brpl	.-14     	; 0x1842 <__divsf3_pse+0x2c>
    1850:	29 d0       	rcall	.+82     	; 0x18a4 <__divsf3_pse+0x8e>
    1852:	fe 2f       	mov	r31, r30
    1854:	27 d0       	rcall	.+78     	; 0x18a4 <__divsf3_pse+0x8e>
    1856:	66 0f       	add	r22, r22
    1858:	77 1f       	adc	r23, r23
    185a:	88 1f       	adc	r24, r24
    185c:	bb 1f       	adc	r27, r27
    185e:	26 17       	cp	r18, r22
    1860:	37 07       	cpc	r19, r23
    1862:	48 07       	cpc	r20, r24
    1864:	ab 07       	cpc	r26, r27
    1866:	b0 e8       	ldi	r27, 0x80	; 128
    1868:	09 f0       	breq	.+2      	; 0x186c <__divsf3_pse+0x56>
    186a:	bb 0b       	sbc	r27, r27
    186c:	80 2d       	mov	r24, r0
    186e:	bf 01       	movw	r22, r30
    1870:	ff 27       	eor	r31, r31
    1872:	93 58       	subi	r25, 0x83	; 131
    1874:	5f 4f       	sbci	r21, 0xFF	; 255
    1876:	2a f0       	brmi	.+10     	; 0x1882 <__divsf3_pse+0x6c>
    1878:	9e 3f       	cpi	r25, 0xFE	; 254
    187a:	51 05       	cpc	r21, r1
    187c:	68 f0       	brcs	.+26     	; 0x1898 <__divsf3_pse+0x82>
    187e:	92 c0       	rjmp	.+292    	; 0x19a4 <__fp_inf>
    1880:	01 c1       	rjmp	.+514    	; 0x1a84 <__fp_szero>
    1882:	5f 3f       	cpi	r21, 0xFF	; 255
    1884:	ec f3       	brlt	.-6      	; 0x1880 <__divsf3_pse+0x6a>
    1886:	98 3e       	cpi	r25, 0xE8	; 232
    1888:	dc f3       	brlt	.-10     	; 0x1880 <__divsf3_pse+0x6a>
    188a:	86 95       	lsr	r24
    188c:	77 95       	ror	r23
    188e:	67 95       	ror	r22
    1890:	b7 95       	ror	r27
    1892:	f7 95       	ror	r31
    1894:	9f 5f       	subi	r25, 0xFF	; 255
    1896:	c9 f7       	brne	.-14     	; 0x188a <__divsf3_pse+0x74>
    1898:	88 0f       	add	r24, r24
    189a:	91 1d       	adc	r25, r1
    189c:	96 95       	lsr	r25
    189e:	87 95       	ror	r24
    18a0:	97 f9       	bld	r25, 7
    18a2:	08 95       	ret
    18a4:	e1 e0       	ldi	r30, 0x01	; 1
    18a6:	66 0f       	add	r22, r22
    18a8:	77 1f       	adc	r23, r23
    18aa:	88 1f       	adc	r24, r24
    18ac:	bb 1f       	adc	r27, r27
    18ae:	62 17       	cp	r22, r18
    18b0:	73 07       	cpc	r23, r19
    18b2:	84 07       	cpc	r24, r20
    18b4:	ba 07       	cpc	r27, r26
    18b6:	20 f0       	brcs	.+8      	; 0x18c0 <__divsf3_pse+0xaa>
    18b8:	62 1b       	sub	r22, r18
    18ba:	73 0b       	sbc	r23, r19
    18bc:	84 0b       	sbc	r24, r20
    18be:	ba 0b       	sbc	r27, r26
    18c0:	ee 1f       	adc	r30, r30
    18c2:	88 f7       	brcc	.-30     	; 0x18a6 <__divsf3_pse+0x90>
    18c4:	e0 95       	com	r30
    18c6:	08 95       	ret

000018c8 <__fixsfsi>:
    18c8:	04 d0       	rcall	.+8      	; 0x18d2 <__fixunssfsi>
    18ca:	68 94       	set
    18cc:	b1 11       	cpse	r27, r1
    18ce:	da c0       	rjmp	.+436    	; 0x1a84 <__fp_szero>
    18d0:	08 95       	ret

000018d2 <__fixunssfsi>:
    18d2:	bd d0       	rcall	.+378    	; 0x1a4e <__fp_splitA>
    18d4:	88 f0       	brcs	.+34     	; 0x18f8 <__fixunssfsi+0x26>
    18d6:	9f 57       	subi	r25, 0x7F	; 127
    18d8:	90 f0       	brcs	.+36     	; 0x18fe <__fixunssfsi+0x2c>
    18da:	b9 2f       	mov	r27, r25
    18dc:	99 27       	eor	r25, r25
    18de:	b7 51       	subi	r27, 0x17	; 23
    18e0:	a0 f0       	brcs	.+40     	; 0x190a <__fixunssfsi+0x38>
    18e2:	d1 f0       	breq	.+52     	; 0x1918 <__fixunssfsi+0x46>
    18e4:	66 0f       	add	r22, r22
    18e6:	77 1f       	adc	r23, r23
    18e8:	88 1f       	adc	r24, r24
    18ea:	99 1f       	adc	r25, r25
    18ec:	1a f0       	brmi	.+6      	; 0x18f4 <__fixunssfsi+0x22>
    18ee:	ba 95       	dec	r27
    18f0:	c9 f7       	brne	.-14     	; 0x18e4 <__fixunssfsi+0x12>
    18f2:	12 c0       	rjmp	.+36     	; 0x1918 <__fixunssfsi+0x46>
    18f4:	b1 30       	cpi	r27, 0x01	; 1
    18f6:	81 f0       	breq	.+32     	; 0x1918 <__fixunssfsi+0x46>
    18f8:	c4 d0       	rcall	.+392    	; 0x1a82 <__fp_zero>
    18fa:	b1 e0       	ldi	r27, 0x01	; 1
    18fc:	08 95       	ret
    18fe:	c1 c0       	rjmp	.+386    	; 0x1a82 <__fp_zero>
    1900:	67 2f       	mov	r22, r23
    1902:	78 2f       	mov	r23, r24
    1904:	88 27       	eor	r24, r24
    1906:	b8 5f       	subi	r27, 0xF8	; 248
    1908:	39 f0       	breq	.+14     	; 0x1918 <__fixunssfsi+0x46>
    190a:	b9 3f       	cpi	r27, 0xF9	; 249
    190c:	cc f3       	brlt	.-14     	; 0x1900 <__fixunssfsi+0x2e>
    190e:	86 95       	lsr	r24
    1910:	77 95       	ror	r23
    1912:	67 95       	ror	r22
    1914:	b3 95       	inc	r27
    1916:	d9 f7       	brne	.-10     	; 0x190e <__fixunssfsi+0x3c>
    1918:	3e f4       	brtc	.+14     	; 0x1928 <__fixunssfsi+0x56>
    191a:	90 95       	com	r25
    191c:	80 95       	com	r24
    191e:	70 95       	com	r23
    1920:	61 95       	neg	r22
    1922:	7f 4f       	sbci	r23, 0xFF	; 255
    1924:	8f 4f       	sbci	r24, 0xFF	; 255
    1926:	9f 4f       	sbci	r25, 0xFF	; 255
    1928:	08 95       	ret

0000192a <__floatunsisf>:
    192a:	e8 94       	clt
    192c:	09 c0       	rjmp	.+18     	; 0x1940 <__floatsisf+0x12>

0000192e <__floatsisf>:
    192e:	97 fb       	bst	r25, 7
    1930:	3e f4       	brtc	.+14     	; 0x1940 <__floatsisf+0x12>
    1932:	90 95       	com	r25
    1934:	80 95       	com	r24
    1936:	70 95       	com	r23
    1938:	61 95       	neg	r22
    193a:	7f 4f       	sbci	r23, 0xFF	; 255
    193c:	8f 4f       	sbci	r24, 0xFF	; 255
    193e:	9f 4f       	sbci	r25, 0xFF	; 255
    1940:	99 23       	and	r25, r25
    1942:	a9 f0       	breq	.+42     	; 0x196e <__floatsisf+0x40>
    1944:	f9 2f       	mov	r31, r25
    1946:	96 e9       	ldi	r25, 0x96	; 150
    1948:	bb 27       	eor	r27, r27
    194a:	93 95       	inc	r25
    194c:	f6 95       	lsr	r31
    194e:	87 95       	ror	r24
    1950:	77 95       	ror	r23
    1952:	67 95       	ror	r22
    1954:	b7 95       	ror	r27
    1956:	f1 11       	cpse	r31, r1
    1958:	f8 cf       	rjmp	.-16     	; 0x194a <__floatsisf+0x1c>
    195a:	fa f4       	brpl	.+62     	; 0x199a <__floatsisf+0x6c>
    195c:	bb 0f       	add	r27, r27
    195e:	11 f4       	brne	.+4      	; 0x1964 <__floatsisf+0x36>
    1960:	60 ff       	sbrs	r22, 0
    1962:	1b c0       	rjmp	.+54     	; 0x199a <__floatsisf+0x6c>
    1964:	6f 5f       	subi	r22, 0xFF	; 255
    1966:	7f 4f       	sbci	r23, 0xFF	; 255
    1968:	8f 4f       	sbci	r24, 0xFF	; 255
    196a:	9f 4f       	sbci	r25, 0xFF	; 255
    196c:	16 c0       	rjmp	.+44     	; 0x199a <__floatsisf+0x6c>
    196e:	88 23       	and	r24, r24
    1970:	11 f0       	breq	.+4      	; 0x1976 <__floatsisf+0x48>
    1972:	96 e9       	ldi	r25, 0x96	; 150
    1974:	11 c0       	rjmp	.+34     	; 0x1998 <__floatsisf+0x6a>
    1976:	77 23       	and	r23, r23
    1978:	21 f0       	breq	.+8      	; 0x1982 <__floatsisf+0x54>
    197a:	9e e8       	ldi	r25, 0x8E	; 142
    197c:	87 2f       	mov	r24, r23
    197e:	76 2f       	mov	r23, r22
    1980:	05 c0       	rjmp	.+10     	; 0x198c <__floatsisf+0x5e>
    1982:	66 23       	and	r22, r22
    1984:	71 f0       	breq	.+28     	; 0x19a2 <__floatsisf+0x74>
    1986:	96 e8       	ldi	r25, 0x86	; 134
    1988:	86 2f       	mov	r24, r22
    198a:	70 e0       	ldi	r23, 0x00	; 0
    198c:	60 e0       	ldi	r22, 0x00	; 0
    198e:	2a f0       	brmi	.+10     	; 0x199a <__floatsisf+0x6c>
    1990:	9a 95       	dec	r25
    1992:	66 0f       	add	r22, r22
    1994:	77 1f       	adc	r23, r23
    1996:	88 1f       	adc	r24, r24
    1998:	da f7       	brpl	.-10     	; 0x1990 <__floatsisf+0x62>
    199a:	88 0f       	add	r24, r24
    199c:	96 95       	lsr	r25
    199e:	87 95       	ror	r24
    19a0:	97 f9       	bld	r25, 7
    19a2:	08 95       	ret

000019a4 <__fp_inf>:
    19a4:	97 f9       	bld	r25, 7
    19a6:	9f 67       	ori	r25, 0x7F	; 127
    19a8:	80 e8       	ldi	r24, 0x80	; 128
    19aa:	70 e0       	ldi	r23, 0x00	; 0
    19ac:	60 e0       	ldi	r22, 0x00	; 0
    19ae:	08 95       	ret

000019b0 <__fp_nan>:
    19b0:	9f ef       	ldi	r25, 0xFF	; 255
    19b2:	80 ec       	ldi	r24, 0xC0	; 192
    19b4:	08 95       	ret

000019b6 <__fp_powser>:
    19b6:	df 93       	push	r29
    19b8:	cf 93       	push	r28
    19ba:	1f 93       	push	r17
    19bc:	0f 93       	push	r16
    19be:	ff 92       	push	r15
    19c0:	ef 92       	push	r14
    19c2:	df 92       	push	r13
    19c4:	7b 01       	movw	r14, r22
    19c6:	8c 01       	movw	r16, r24
    19c8:	68 94       	set
    19ca:	05 c0       	rjmp	.+10     	; 0x19d6 <__fp_powser+0x20>
    19cc:	da 2e       	mov	r13, r26
    19ce:	ef 01       	movw	r28, r30
    19d0:	72 d0       	rcall	.+228    	; 0x1ab6 <__mulsf3x>
    19d2:	fe 01       	movw	r30, r28
    19d4:	e8 94       	clt
    19d6:	a5 91       	lpm	r26, Z+
    19d8:	25 91       	lpm	r18, Z+
    19da:	35 91       	lpm	r19, Z+
    19dc:	45 91       	lpm	r20, Z+
    19de:	55 91       	lpm	r21, Z+
    19e0:	ae f3       	brts	.-22     	; 0x19cc <__fp_powser+0x16>
    19e2:	ef 01       	movw	r28, r30
    19e4:	16 d1       	rcall	.+556    	; 0x1c12 <__addsf3x>
    19e6:	fe 01       	movw	r30, r28
    19e8:	97 01       	movw	r18, r14
    19ea:	a8 01       	movw	r20, r16
    19ec:	da 94       	dec	r13
    19ee:	79 f7       	brne	.-34     	; 0x19ce <__fp_powser+0x18>
    19f0:	df 90       	pop	r13
    19f2:	ef 90       	pop	r14
    19f4:	ff 90       	pop	r15
    19f6:	0f 91       	pop	r16
    19f8:	1f 91       	pop	r17
    19fa:	cf 91       	pop	r28
    19fc:	df 91       	pop	r29
    19fe:	08 95       	ret

00001a00 <__fp_pscA>:
    1a00:	00 24       	eor	r0, r0
    1a02:	0a 94       	dec	r0
    1a04:	16 16       	cp	r1, r22
    1a06:	17 06       	cpc	r1, r23
    1a08:	18 06       	cpc	r1, r24
    1a0a:	09 06       	cpc	r0, r25
    1a0c:	08 95       	ret

00001a0e <__fp_pscB>:
    1a0e:	00 24       	eor	r0, r0
    1a10:	0a 94       	dec	r0
    1a12:	12 16       	cp	r1, r18
    1a14:	13 06       	cpc	r1, r19
    1a16:	14 06       	cpc	r1, r20
    1a18:	05 06       	cpc	r0, r21
    1a1a:	08 95       	ret

00001a1c <__fp_round>:
    1a1c:	09 2e       	mov	r0, r25
    1a1e:	03 94       	inc	r0
    1a20:	00 0c       	add	r0, r0
    1a22:	11 f4       	brne	.+4      	; 0x1a28 <__fp_round+0xc>
    1a24:	88 23       	and	r24, r24
    1a26:	52 f0       	brmi	.+20     	; 0x1a3c <__fp_round+0x20>
    1a28:	bb 0f       	add	r27, r27
    1a2a:	40 f4       	brcc	.+16     	; 0x1a3c <__fp_round+0x20>
    1a2c:	bf 2b       	or	r27, r31
    1a2e:	11 f4       	brne	.+4      	; 0x1a34 <__fp_round+0x18>
    1a30:	60 ff       	sbrs	r22, 0
    1a32:	04 c0       	rjmp	.+8      	; 0x1a3c <__fp_round+0x20>
    1a34:	6f 5f       	subi	r22, 0xFF	; 255
    1a36:	7f 4f       	sbci	r23, 0xFF	; 255
    1a38:	8f 4f       	sbci	r24, 0xFF	; 255
    1a3a:	9f 4f       	sbci	r25, 0xFF	; 255
    1a3c:	08 95       	ret

00001a3e <__fp_split3>:
    1a3e:	57 fd       	sbrc	r21, 7
    1a40:	90 58       	subi	r25, 0x80	; 128
    1a42:	44 0f       	add	r20, r20
    1a44:	55 1f       	adc	r21, r21
    1a46:	59 f0       	breq	.+22     	; 0x1a5e <__fp_splitA+0x10>
    1a48:	5f 3f       	cpi	r21, 0xFF	; 255
    1a4a:	71 f0       	breq	.+28     	; 0x1a68 <__fp_splitA+0x1a>
    1a4c:	47 95       	ror	r20

00001a4e <__fp_splitA>:
    1a4e:	88 0f       	add	r24, r24
    1a50:	97 fb       	bst	r25, 7
    1a52:	99 1f       	adc	r25, r25
    1a54:	61 f0       	breq	.+24     	; 0x1a6e <__fp_splitA+0x20>
    1a56:	9f 3f       	cpi	r25, 0xFF	; 255
    1a58:	79 f0       	breq	.+30     	; 0x1a78 <__fp_splitA+0x2a>
    1a5a:	87 95       	ror	r24
    1a5c:	08 95       	ret
    1a5e:	12 16       	cp	r1, r18
    1a60:	13 06       	cpc	r1, r19
    1a62:	14 06       	cpc	r1, r20
    1a64:	55 1f       	adc	r21, r21
    1a66:	f2 cf       	rjmp	.-28     	; 0x1a4c <__fp_split3+0xe>
    1a68:	46 95       	lsr	r20
    1a6a:	f1 df       	rcall	.-30     	; 0x1a4e <__fp_splitA>
    1a6c:	08 c0       	rjmp	.+16     	; 0x1a7e <__fp_splitA+0x30>
    1a6e:	16 16       	cp	r1, r22
    1a70:	17 06       	cpc	r1, r23
    1a72:	18 06       	cpc	r1, r24
    1a74:	99 1f       	adc	r25, r25
    1a76:	f1 cf       	rjmp	.-30     	; 0x1a5a <__fp_splitA+0xc>
    1a78:	86 95       	lsr	r24
    1a7a:	71 05       	cpc	r23, r1
    1a7c:	61 05       	cpc	r22, r1
    1a7e:	08 94       	sec
    1a80:	08 95       	ret

00001a82 <__fp_zero>:
    1a82:	e8 94       	clt

00001a84 <__fp_szero>:
    1a84:	bb 27       	eor	r27, r27
    1a86:	66 27       	eor	r22, r22
    1a88:	77 27       	eor	r23, r23
    1a8a:	cb 01       	movw	r24, r22
    1a8c:	97 f9       	bld	r25, 7
    1a8e:	08 95       	ret

00001a90 <inverse>:
    1a90:	9b 01       	movw	r18, r22
    1a92:	ac 01       	movw	r20, r24
    1a94:	60 e0       	ldi	r22, 0x00	; 0
    1a96:	70 e0       	ldi	r23, 0x00	; 0
    1a98:	80 e8       	ldi	r24, 0x80	; 128
    1a9a:	9f e3       	ldi	r25, 0x3F	; 63
    1a9c:	0d c1       	rjmp	.+538    	; 0x1cb8 <__divsf3>

00001a9e <__mulsf3>:
    1a9e:	0b d0       	rcall	.+22     	; 0x1ab6 <__mulsf3x>
    1aa0:	bd cf       	rjmp	.-134    	; 0x1a1c <__fp_round>
    1aa2:	ae df       	rcall	.-164    	; 0x1a00 <__fp_pscA>
    1aa4:	28 f0       	brcs	.+10     	; 0x1ab0 <__mulsf3+0x12>
    1aa6:	b3 df       	rcall	.-154    	; 0x1a0e <__fp_pscB>
    1aa8:	18 f0       	brcs	.+6      	; 0x1ab0 <__mulsf3+0x12>
    1aaa:	95 23       	and	r25, r21
    1aac:	09 f0       	breq	.+2      	; 0x1ab0 <__mulsf3+0x12>
    1aae:	7a cf       	rjmp	.-268    	; 0x19a4 <__fp_inf>
    1ab0:	7f cf       	rjmp	.-258    	; 0x19b0 <__fp_nan>
    1ab2:	11 24       	eor	r1, r1
    1ab4:	e7 cf       	rjmp	.-50     	; 0x1a84 <__fp_szero>

00001ab6 <__mulsf3x>:
    1ab6:	c3 df       	rcall	.-122    	; 0x1a3e <__fp_split3>
    1ab8:	a0 f3       	brcs	.-24     	; 0x1aa2 <__mulsf3+0x4>

00001aba <__mulsf3_pse>:
    1aba:	95 9f       	mul	r25, r21
    1abc:	d1 f3       	breq	.-12     	; 0x1ab2 <__mulsf3+0x14>
    1abe:	95 0f       	add	r25, r21
    1ac0:	50 e0       	ldi	r21, 0x00	; 0
    1ac2:	55 1f       	adc	r21, r21
    1ac4:	62 9f       	mul	r22, r18
    1ac6:	f0 01       	movw	r30, r0
    1ac8:	72 9f       	mul	r23, r18
    1aca:	bb 27       	eor	r27, r27
    1acc:	f0 0d       	add	r31, r0
    1ace:	b1 1d       	adc	r27, r1
    1ad0:	63 9f       	mul	r22, r19
    1ad2:	aa 27       	eor	r26, r26
    1ad4:	f0 0d       	add	r31, r0
    1ad6:	b1 1d       	adc	r27, r1
    1ad8:	aa 1f       	adc	r26, r26
    1ada:	64 9f       	mul	r22, r20
    1adc:	66 27       	eor	r22, r22
    1ade:	b0 0d       	add	r27, r0
    1ae0:	a1 1d       	adc	r26, r1
    1ae2:	66 1f       	adc	r22, r22
    1ae4:	82 9f       	mul	r24, r18
    1ae6:	22 27       	eor	r18, r18
    1ae8:	b0 0d       	add	r27, r0
    1aea:	a1 1d       	adc	r26, r1
    1aec:	62 1f       	adc	r22, r18
    1aee:	73 9f       	mul	r23, r19
    1af0:	b0 0d       	add	r27, r0
    1af2:	a1 1d       	adc	r26, r1
    1af4:	62 1f       	adc	r22, r18
    1af6:	83 9f       	mul	r24, r19
    1af8:	a0 0d       	add	r26, r0
    1afa:	61 1d       	adc	r22, r1
    1afc:	22 1f       	adc	r18, r18
    1afe:	74 9f       	mul	r23, r20
    1b00:	33 27       	eor	r19, r19
    1b02:	a0 0d       	add	r26, r0
    1b04:	61 1d       	adc	r22, r1
    1b06:	23 1f       	adc	r18, r19
    1b08:	84 9f       	mul	r24, r20
    1b0a:	60 0d       	add	r22, r0
    1b0c:	21 1d       	adc	r18, r1
    1b0e:	82 2f       	mov	r24, r18
    1b10:	76 2f       	mov	r23, r22
    1b12:	6a 2f       	mov	r22, r26
    1b14:	11 24       	eor	r1, r1
    1b16:	9f 57       	subi	r25, 0x7F	; 127
    1b18:	50 40       	sbci	r21, 0x00	; 0
    1b1a:	8a f0       	brmi	.+34     	; 0x1b3e <__mulsf3_pse+0x84>
    1b1c:	e1 f0       	breq	.+56     	; 0x1b56 <__mulsf3_pse+0x9c>
    1b1e:	88 23       	and	r24, r24
    1b20:	4a f0       	brmi	.+18     	; 0x1b34 <__mulsf3_pse+0x7a>
    1b22:	ee 0f       	add	r30, r30
    1b24:	ff 1f       	adc	r31, r31
    1b26:	bb 1f       	adc	r27, r27
    1b28:	66 1f       	adc	r22, r22
    1b2a:	77 1f       	adc	r23, r23
    1b2c:	88 1f       	adc	r24, r24
    1b2e:	91 50       	subi	r25, 0x01	; 1
    1b30:	50 40       	sbci	r21, 0x00	; 0
    1b32:	a9 f7       	brne	.-22     	; 0x1b1e <__mulsf3_pse+0x64>
    1b34:	9e 3f       	cpi	r25, 0xFE	; 254
    1b36:	51 05       	cpc	r21, r1
    1b38:	70 f0       	brcs	.+28     	; 0x1b56 <__mulsf3_pse+0x9c>
    1b3a:	34 cf       	rjmp	.-408    	; 0x19a4 <__fp_inf>
    1b3c:	a3 cf       	rjmp	.-186    	; 0x1a84 <__fp_szero>
    1b3e:	5f 3f       	cpi	r21, 0xFF	; 255
    1b40:	ec f3       	brlt	.-6      	; 0x1b3c <__mulsf3_pse+0x82>
    1b42:	98 3e       	cpi	r25, 0xE8	; 232
    1b44:	dc f3       	brlt	.-10     	; 0x1b3c <__mulsf3_pse+0x82>
    1b46:	86 95       	lsr	r24
    1b48:	77 95       	ror	r23
    1b4a:	67 95       	ror	r22
    1b4c:	b7 95       	ror	r27
    1b4e:	f7 95       	ror	r31
    1b50:	e7 95       	ror	r30
    1b52:	9f 5f       	subi	r25, 0xFF	; 255
    1b54:	c1 f7       	brne	.-16     	; 0x1b46 <__mulsf3_pse+0x8c>
    1b56:	fe 2b       	or	r31, r30
    1b58:	88 0f       	add	r24, r24
    1b5a:	91 1d       	adc	r25, r1
    1b5c:	96 95       	lsr	r25
    1b5e:	87 95       	ror	r24
    1b60:	97 f9       	bld	r25, 7
    1b62:	08 95       	ret
    1b64:	11 f4       	brne	.+4      	; 0x1b6a <__mulsf3_pse+0xb0>
    1b66:	0e f4       	brtc	.+2      	; 0x1b6a <__mulsf3_pse+0xb0>
    1b68:	23 cf       	rjmp	.-442    	; 0x19b0 <__fp_nan>
    1b6a:	a8 c0       	rjmp	.+336    	; 0x1cbc <__fp_mpack>

00001b6c <sqrt>:
    1b6c:	70 df       	rcall	.-288    	; 0x1a4e <__fp_splitA>
    1b6e:	d0 f3       	brcs	.-12     	; 0x1b64 <__mulsf3_pse+0xaa>
    1b70:	99 23       	and	r25, r25
    1b72:	d9 f3       	breq	.-10     	; 0x1b6a <__mulsf3_pse+0xb0>
    1b74:	ce f3       	brts	.-14     	; 0x1b68 <__mulsf3_pse+0xae>
    1b76:	9f 57       	subi	r25, 0x7F	; 127
    1b78:	55 0b       	sbc	r21, r21
    1b7a:	87 ff       	sbrs	r24, 7
    1b7c:	ad d0       	rcall	.+346    	; 0x1cd8 <__fp_norm2>
    1b7e:	00 24       	eor	r0, r0
    1b80:	a0 e6       	ldi	r26, 0x60	; 96
    1b82:	40 ea       	ldi	r20, 0xA0	; 160
    1b84:	90 01       	movw	r18, r0
    1b86:	80 58       	subi	r24, 0x80	; 128
    1b88:	56 95       	lsr	r21
    1b8a:	97 95       	ror	r25
    1b8c:	28 f4       	brcc	.+10     	; 0x1b98 <sqrt+0x2c>
    1b8e:	80 5c       	subi	r24, 0xC0	; 192
    1b90:	66 0f       	add	r22, r22
    1b92:	77 1f       	adc	r23, r23
    1b94:	88 1f       	adc	r24, r24
    1b96:	20 f0       	brcs	.+8      	; 0x1ba0 <sqrt+0x34>
    1b98:	26 17       	cp	r18, r22
    1b9a:	37 07       	cpc	r19, r23
    1b9c:	48 07       	cpc	r20, r24
    1b9e:	30 f4       	brcc	.+12     	; 0x1bac <sqrt+0x40>
    1ba0:	62 1b       	sub	r22, r18
    1ba2:	73 0b       	sbc	r23, r19
    1ba4:	84 0b       	sbc	r24, r20
    1ba6:	20 29       	or	r18, r0
    1ba8:	31 29       	or	r19, r1
    1baa:	4a 2b       	or	r20, r26
    1bac:	a6 95       	lsr	r26
    1bae:	17 94       	ror	r1
    1bb0:	07 94       	ror	r0
    1bb2:	20 25       	eor	r18, r0
    1bb4:	31 25       	eor	r19, r1
    1bb6:	4a 27       	eor	r20, r26
    1bb8:	58 f7       	brcc	.-42     	; 0x1b90 <sqrt+0x24>
    1bba:	66 0f       	add	r22, r22
    1bbc:	77 1f       	adc	r23, r23
    1bbe:	88 1f       	adc	r24, r24
    1bc0:	20 f0       	brcs	.+8      	; 0x1bca <sqrt+0x5e>
    1bc2:	26 17       	cp	r18, r22
    1bc4:	37 07       	cpc	r19, r23
    1bc6:	48 07       	cpc	r20, r24
    1bc8:	30 f4       	brcc	.+12     	; 0x1bd6 <sqrt+0x6a>
    1bca:	62 0b       	sbc	r22, r18
    1bcc:	73 0b       	sbc	r23, r19
    1bce:	84 0b       	sbc	r24, r20
    1bd0:	20 0d       	add	r18, r0
    1bd2:	31 1d       	adc	r19, r1
    1bd4:	41 1d       	adc	r20, r1
    1bd6:	a0 95       	com	r26
    1bd8:	81 f7       	brne	.-32     	; 0x1bba <sqrt+0x4e>
    1bda:	b9 01       	movw	r22, r18
    1bdc:	84 2f       	mov	r24, r20
    1bde:	91 58       	subi	r25, 0x81	; 129
    1be0:	88 0f       	add	r24, r24
    1be2:	96 95       	lsr	r25
    1be4:	87 95       	ror	r24
    1be6:	08 95       	ret

00001be8 <square>:
    1be8:	9b 01       	movw	r18, r22
    1bea:	ac 01       	movw	r20, r24
    1bec:	58 cf       	rjmp	.-336    	; 0x1a9e <__mulsf3>

00001bee <__subsf3>:
    1bee:	50 58       	subi	r21, 0x80	; 128

00001bf0 <__addsf3>:
    1bf0:	bb 27       	eor	r27, r27
    1bf2:	aa 27       	eor	r26, r26
    1bf4:	0e d0       	rcall	.+28     	; 0x1c12 <__addsf3x>
    1bf6:	12 cf       	rjmp	.-476    	; 0x1a1c <__fp_round>
    1bf8:	03 df       	rcall	.-506    	; 0x1a00 <__fp_pscA>
    1bfa:	30 f0       	brcs	.+12     	; 0x1c08 <__addsf3+0x18>
    1bfc:	08 df       	rcall	.-496    	; 0x1a0e <__fp_pscB>
    1bfe:	20 f0       	brcs	.+8      	; 0x1c08 <__addsf3+0x18>
    1c00:	31 f4       	brne	.+12     	; 0x1c0e <__addsf3+0x1e>
    1c02:	9f 3f       	cpi	r25, 0xFF	; 255
    1c04:	11 f4       	brne	.+4      	; 0x1c0a <__addsf3+0x1a>
    1c06:	1e f4       	brtc	.+6      	; 0x1c0e <__addsf3+0x1e>
    1c08:	d3 ce       	rjmp	.-602    	; 0x19b0 <__fp_nan>
    1c0a:	0e f4       	brtc	.+2      	; 0x1c0e <__addsf3+0x1e>
    1c0c:	e0 95       	com	r30
    1c0e:	e7 fb       	bst	r30, 7
    1c10:	c9 ce       	rjmp	.-622    	; 0x19a4 <__fp_inf>

00001c12 <__addsf3x>:
    1c12:	e9 2f       	mov	r30, r25
    1c14:	14 df       	rcall	.-472    	; 0x1a3e <__fp_split3>
    1c16:	80 f3       	brcs	.-32     	; 0x1bf8 <__addsf3+0x8>
    1c18:	ba 17       	cp	r27, r26
    1c1a:	62 07       	cpc	r22, r18
    1c1c:	73 07       	cpc	r23, r19
    1c1e:	84 07       	cpc	r24, r20
    1c20:	95 07       	cpc	r25, r21
    1c22:	18 f0       	brcs	.+6      	; 0x1c2a <__addsf3x+0x18>
    1c24:	71 f4       	brne	.+28     	; 0x1c42 <__addsf3x+0x30>
    1c26:	9e f5       	brtc	.+102    	; 0x1c8e <__addsf3x+0x7c>
    1c28:	2c cf       	rjmp	.-424    	; 0x1a82 <__fp_zero>
    1c2a:	0e f4       	brtc	.+2      	; 0x1c2e <__addsf3x+0x1c>
    1c2c:	e0 95       	com	r30
    1c2e:	0b 2e       	mov	r0, r27
    1c30:	ba 2f       	mov	r27, r26
    1c32:	a0 2d       	mov	r26, r0
    1c34:	0b 01       	movw	r0, r22
    1c36:	b9 01       	movw	r22, r18
    1c38:	90 01       	movw	r18, r0
    1c3a:	0c 01       	movw	r0, r24
    1c3c:	ca 01       	movw	r24, r20
    1c3e:	a0 01       	movw	r20, r0
    1c40:	11 24       	eor	r1, r1
    1c42:	ff 27       	eor	r31, r31
    1c44:	59 1b       	sub	r21, r25
    1c46:	99 f0       	breq	.+38     	; 0x1c6e <__addsf3x+0x5c>
    1c48:	59 3f       	cpi	r21, 0xF9	; 249
    1c4a:	50 f4       	brcc	.+20     	; 0x1c60 <__addsf3x+0x4e>
    1c4c:	50 3e       	cpi	r21, 0xE0	; 224
    1c4e:	68 f1       	brcs	.+90     	; 0x1caa <__addsf3x+0x98>
    1c50:	1a 16       	cp	r1, r26
    1c52:	f0 40       	sbci	r31, 0x00	; 0
    1c54:	a2 2f       	mov	r26, r18
    1c56:	23 2f       	mov	r18, r19
    1c58:	34 2f       	mov	r19, r20
    1c5a:	44 27       	eor	r20, r20
    1c5c:	58 5f       	subi	r21, 0xF8	; 248
    1c5e:	f3 cf       	rjmp	.-26     	; 0x1c46 <__addsf3x+0x34>
    1c60:	46 95       	lsr	r20
    1c62:	37 95       	ror	r19
    1c64:	27 95       	ror	r18
    1c66:	a7 95       	ror	r26
    1c68:	f0 40       	sbci	r31, 0x00	; 0
    1c6a:	53 95       	inc	r21
    1c6c:	c9 f7       	brne	.-14     	; 0x1c60 <__addsf3x+0x4e>
    1c6e:	7e f4       	brtc	.+30     	; 0x1c8e <__addsf3x+0x7c>
    1c70:	1f 16       	cp	r1, r31
    1c72:	ba 0b       	sbc	r27, r26
    1c74:	62 0b       	sbc	r22, r18
    1c76:	73 0b       	sbc	r23, r19
    1c78:	84 0b       	sbc	r24, r20
    1c7a:	ba f0       	brmi	.+46     	; 0x1caa <__addsf3x+0x98>
    1c7c:	91 50       	subi	r25, 0x01	; 1
    1c7e:	a1 f0       	breq	.+40     	; 0x1ca8 <__addsf3x+0x96>
    1c80:	ff 0f       	add	r31, r31
    1c82:	bb 1f       	adc	r27, r27
    1c84:	66 1f       	adc	r22, r22
    1c86:	77 1f       	adc	r23, r23
    1c88:	88 1f       	adc	r24, r24
    1c8a:	c2 f7       	brpl	.-16     	; 0x1c7c <__addsf3x+0x6a>
    1c8c:	0e c0       	rjmp	.+28     	; 0x1caa <__addsf3x+0x98>
    1c8e:	ba 0f       	add	r27, r26
    1c90:	62 1f       	adc	r22, r18
    1c92:	73 1f       	adc	r23, r19
    1c94:	84 1f       	adc	r24, r20
    1c96:	48 f4       	brcc	.+18     	; 0x1caa <__addsf3x+0x98>
    1c98:	87 95       	ror	r24
    1c9a:	77 95       	ror	r23
    1c9c:	67 95       	ror	r22
    1c9e:	b7 95       	ror	r27
    1ca0:	f7 95       	ror	r31
    1ca2:	9e 3f       	cpi	r25, 0xFE	; 254
    1ca4:	08 f0       	brcs	.+2      	; 0x1ca8 <__addsf3x+0x96>
    1ca6:	b3 cf       	rjmp	.-154    	; 0x1c0e <__addsf3+0x1e>
    1ca8:	93 95       	inc	r25
    1caa:	88 0f       	add	r24, r24
    1cac:	08 f0       	brcs	.+2      	; 0x1cb0 <__addsf3x+0x9e>
    1cae:	99 27       	eor	r25, r25
    1cb0:	ee 0f       	add	r30, r30
    1cb2:	97 95       	ror	r25
    1cb4:	87 95       	ror	r24
    1cb6:	08 95       	ret

00001cb8 <__divsf3>:
    1cb8:	ac dd       	rcall	.-1192   	; 0x1812 <__divsf3x>
    1cba:	b0 ce       	rjmp	.-672    	; 0x1a1c <__fp_round>

00001cbc <__fp_mpack>:
    1cbc:	9f 3f       	cpi	r25, 0xFF	; 255
    1cbe:	31 f0       	breq	.+12     	; 0x1ccc <__fp_mpack_finite+0xc>

00001cc0 <__fp_mpack_finite>:
    1cc0:	91 50       	subi	r25, 0x01	; 1
    1cc2:	20 f4       	brcc	.+8      	; 0x1ccc <__fp_mpack_finite+0xc>
    1cc4:	87 95       	ror	r24
    1cc6:	77 95       	ror	r23
    1cc8:	67 95       	ror	r22
    1cca:	b7 95       	ror	r27
    1ccc:	88 0f       	add	r24, r24
    1cce:	91 1d       	adc	r25, r1
    1cd0:	96 95       	lsr	r25
    1cd2:	87 95       	ror	r24
    1cd4:	97 f9       	bld	r25, 7
    1cd6:	08 95       	ret

00001cd8 <__fp_norm2>:
    1cd8:	91 50       	subi	r25, 0x01	; 1
    1cda:	50 40       	sbci	r21, 0x00	; 0
    1cdc:	66 0f       	add	r22, r22
    1cde:	77 1f       	adc	r23, r23
    1ce0:	88 1f       	adc	r24, r24
    1ce2:	d2 f7       	brpl	.-12     	; 0x1cd8 <__fp_norm2>
    1ce4:	08 95       	ret

00001ce6 <__divmodhi4>:
    1ce6:	97 fb       	bst	r25, 7
    1ce8:	07 2e       	mov	r0, r23
    1cea:	16 f4       	brtc	.+4      	; 0x1cf0 <__divmodhi4+0xa>
    1cec:	00 94       	com	r0
    1cee:	07 d0       	rcall	.+14     	; 0x1cfe <__divmodhi4_neg1>
    1cf0:	77 fd       	sbrc	r23, 7
    1cf2:	09 d0       	rcall	.+18     	; 0x1d06 <__divmodhi4_neg2>
    1cf4:	0e 94 a6 0e 	call	0x1d4c	; 0x1d4c <__udivmodhi4>
    1cf8:	07 fc       	sbrc	r0, 7
    1cfa:	05 d0       	rcall	.+10     	; 0x1d06 <__divmodhi4_neg2>
    1cfc:	3e f4       	brtc	.+14     	; 0x1d0c <__divmodhi4_exit>

00001cfe <__divmodhi4_neg1>:
    1cfe:	90 95       	com	r25
    1d00:	81 95       	neg	r24
    1d02:	9f 4f       	sbci	r25, 0xFF	; 255
    1d04:	08 95       	ret

00001d06 <__divmodhi4_neg2>:
    1d06:	70 95       	com	r23
    1d08:	61 95       	neg	r22
    1d0a:	7f 4f       	sbci	r23, 0xFF	; 255

00001d0c <__divmodhi4_exit>:
    1d0c:	08 95       	ret

00001d0e <__divmodsi4>:
    1d0e:	05 2e       	mov	r0, r21
    1d10:	97 fb       	bst	r25, 7
    1d12:	1e f4       	brtc	.+6      	; 0x1d1a <__divmodsi4+0xc>
    1d14:	00 94       	com	r0
    1d16:	0e 94 9e 0e 	call	0x1d3c	; 0x1d3c <__negsi2>
    1d1a:	57 fd       	sbrc	r21, 7
    1d1c:	07 d0       	rcall	.+14     	; 0x1d2c <__divmodsi4_neg2>
    1d1e:	0e 94 ba 0e 	call	0x1d74	; 0x1d74 <__udivmodsi4>
    1d22:	07 fc       	sbrc	r0, 7
    1d24:	03 d0       	rcall	.+6      	; 0x1d2c <__divmodsi4_neg2>
    1d26:	4e f4       	brtc	.+18     	; 0x1d3a <__divmodsi4_exit>
    1d28:	0c 94 9e 0e 	jmp	0x1d3c	; 0x1d3c <__negsi2>

00001d2c <__divmodsi4_neg2>:
    1d2c:	50 95       	com	r21
    1d2e:	40 95       	com	r20
    1d30:	30 95       	com	r19
    1d32:	21 95       	neg	r18
    1d34:	3f 4f       	sbci	r19, 0xFF	; 255
    1d36:	4f 4f       	sbci	r20, 0xFF	; 255
    1d38:	5f 4f       	sbci	r21, 0xFF	; 255

00001d3a <__divmodsi4_exit>:
    1d3a:	08 95       	ret

00001d3c <__negsi2>:
    1d3c:	90 95       	com	r25
    1d3e:	80 95       	com	r24
    1d40:	70 95       	com	r23
    1d42:	61 95       	neg	r22
    1d44:	7f 4f       	sbci	r23, 0xFF	; 255
    1d46:	8f 4f       	sbci	r24, 0xFF	; 255
    1d48:	9f 4f       	sbci	r25, 0xFF	; 255
    1d4a:	08 95       	ret

00001d4c <__udivmodhi4>:
    1d4c:	aa 1b       	sub	r26, r26
    1d4e:	bb 1b       	sub	r27, r27
    1d50:	51 e1       	ldi	r21, 0x11	; 17
    1d52:	07 c0       	rjmp	.+14     	; 0x1d62 <__udivmodhi4_ep>

00001d54 <__udivmodhi4_loop>:
    1d54:	aa 1f       	adc	r26, r26
    1d56:	bb 1f       	adc	r27, r27
    1d58:	a6 17       	cp	r26, r22
    1d5a:	b7 07       	cpc	r27, r23
    1d5c:	10 f0       	brcs	.+4      	; 0x1d62 <__udivmodhi4_ep>
    1d5e:	a6 1b       	sub	r26, r22
    1d60:	b7 0b       	sbc	r27, r23

00001d62 <__udivmodhi4_ep>:
    1d62:	88 1f       	adc	r24, r24
    1d64:	99 1f       	adc	r25, r25
    1d66:	5a 95       	dec	r21
    1d68:	a9 f7       	brne	.-22     	; 0x1d54 <__udivmodhi4_loop>
    1d6a:	80 95       	com	r24
    1d6c:	90 95       	com	r25
    1d6e:	bc 01       	movw	r22, r24
    1d70:	cd 01       	movw	r24, r26
    1d72:	08 95       	ret

00001d74 <__udivmodsi4>:
    1d74:	a1 e2       	ldi	r26, 0x21	; 33
    1d76:	1a 2e       	mov	r1, r26
    1d78:	aa 1b       	sub	r26, r26
    1d7a:	bb 1b       	sub	r27, r27
    1d7c:	fd 01       	movw	r30, r26
    1d7e:	0d c0       	rjmp	.+26     	; 0x1d9a <__udivmodsi4_ep>

00001d80 <__udivmodsi4_loop>:
    1d80:	aa 1f       	adc	r26, r26
    1d82:	bb 1f       	adc	r27, r27
    1d84:	ee 1f       	adc	r30, r30
    1d86:	ff 1f       	adc	r31, r31
    1d88:	a2 17       	cp	r26, r18
    1d8a:	b3 07       	cpc	r27, r19
    1d8c:	e4 07       	cpc	r30, r20
    1d8e:	f5 07       	cpc	r31, r21
    1d90:	20 f0       	brcs	.+8      	; 0x1d9a <__udivmodsi4_ep>
    1d92:	a2 1b       	sub	r26, r18
    1d94:	b3 0b       	sbc	r27, r19
    1d96:	e4 0b       	sbc	r30, r20
    1d98:	f5 0b       	sbc	r31, r21

00001d9a <__udivmodsi4_ep>:
    1d9a:	66 1f       	adc	r22, r22
    1d9c:	77 1f       	adc	r23, r23
    1d9e:	88 1f       	adc	r24, r24
    1da0:	99 1f       	adc	r25, r25
    1da2:	1a 94       	dec	r1
    1da4:	69 f7       	brne	.-38     	; 0x1d80 <__udivmodsi4_loop>
    1da6:	60 95       	com	r22
    1da8:	70 95       	com	r23
    1daa:	80 95       	com	r24
    1dac:	90 95       	com	r25
    1dae:	9b 01       	movw	r18, r22
    1db0:	ac 01       	movw	r20, r24
    1db2:	bd 01       	movw	r22, r26
    1db4:	cf 01       	movw	r24, r30
    1db6:	08 95       	ret

00001db8 <malloc>:
    1db8:	cf 93       	push	r28
    1dba:	df 93       	push	r29
    1dbc:	82 30       	cpi	r24, 0x02	; 2
    1dbe:	91 05       	cpc	r25, r1
    1dc0:	10 f4       	brcc	.+4      	; 0x1dc6 <malloc+0xe>
    1dc2:	82 e0       	ldi	r24, 0x02	; 2
    1dc4:	90 e0       	ldi	r25, 0x00	; 0
    1dc6:	e0 91 84 02 	lds	r30, 0x0284
    1dca:	f0 91 85 02 	lds	r31, 0x0285
    1dce:	20 e0       	ldi	r18, 0x00	; 0
    1dd0:	30 e0       	ldi	r19, 0x00	; 0
    1dd2:	a0 e0       	ldi	r26, 0x00	; 0
    1dd4:	b0 e0       	ldi	r27, 0x00	; 0
    1dd6:	30 97       	sbiw	r30, 0x00	; 0
    1dd8:	39 f1       	breq	.+78     	; 0x1e28 <malloc+0x70>
    1dda:	40 81       	ld	r20, Z
    1ddc:	51 81       	ldd	r21, Z+1	; 0x01
    1dde:	48 17       	cp	r20, r24
    1de0:	59 07       	cpc	r21, r25
    1de2:	b8 f0       	brcs	.+46     	; 0x1e12 <malloc+0x5a>
    1de4:	48 17       	cp	r20, r24
    1de6:	59 07       	cpc	r21, r25
    1de8:	71 f4       	brne	.+28     	; 0x1e06 <malloc+0x4e>
    1dea:	82 81       	ldd	r24, Z+2	; 0x02
    1dec:	93 81       	ldd	r25, Z+3	; 0x03
    1dee:	10 97       	sbiw	r26, 0x00	; 0
    1df0:	29 f0       	breq	.+10     	; 0x1dfc <malloc+0x44>
    1df2:	13 96       	adiw	r26, 0x03	; 3
    1df4:	9c 93       	st	X, r25
    1df6:	8e 93       	st	-X, r24
    1df8:	12 97       	sbiw	r26, 0x02	; 2
    1dfa:	2c c0       	rjmp	.+88     	; 0x1e54 <malloc+0x9c>
    1dfc:	90 93 85 02 	sts	0x0285, r25
    1e00:	80 93 84 02 	sts	0x0284, r24
    1e04:	27 c0       	rjmp	.+78     	; 0x1e54 <malloc+0x9c>
    1e06:	21 15       	cp	r18, r1
    1e08:	31 05       	cpc	r19, r1
    1e0a:	31 f0       	breq	.+12     	; 0x1e18 <malloc+0x60>
    1e0c:	42 17       	cp	r20, r18
    1e0e:	53 07       	cpc	r21, r19
    1e10:	18 f0       	brcs	.+6      	; 0x1e18 <malloc+0x60>
    1e12:	a9 01       	movw	r20, r18
    1e14:	db 01       	movw	r26, r22
    1e16:	01 c0       	rjmp	.+2      	; 0x1e1a <malloc+0x62>
    1e18:	ef 01       	movw	r28, r30
    1e1a:	9a 01       	movw	r18, r20
    1e1c:	bd 01       	movw	r22, r26
    1e1e:	df 01       	movw	r26, r30
    1e20:	02 80       	ldd	r0, Z+2	; 0x02
    1e22:	f3 81       	ldd	r31, Z+3	; 0x03
    1e24:	e0 2d       	mov	r30, r0
    1e26:	d7 cf       	rjmp	.-82     	; 0x1dd6 <malloc+0x1e>
    1e28:	21 15       	cp	r18, r1
    1e2a:	31 05       	cpc	r19, r1
    1e2c:	f9 f0       	breq	.+62     	; 0x1e6c <malloc+0xb4>
    1e2e:	28 1b       	sub	r18, r24
    1e30:	39 0b       	sbc	r19, r25
    1e32:	24 30       	cpi	r18, 0x04	; 4
    1e34:	31 05       	cpc	r19, r1
    1e36:	80 f4       	brcc	.+32     	; 0x1e58 <malloc+0xa0>
    1e38:	8a 81       	ldd	r24, Y+2	; 0x02
    1e3a:	9b 81       	ldd	r25, Y+3	; 0x03
    1e3c:	61 15       	cp	r22, r1
    1e3e:	71 05       	cpc	r23, r1
    1e40:	21 f0       	breq	.+8      	; 0x1e4a <malloc+0x92>
    1e42:	fb 01       	movw	r30, r22
    1e44:	93 83       	std	Z+3, r25	; 0x03
    1e46:	82 83       	std	Z+2, r24	; 0x02
    1e48:	04 c0       	rjmp	.+8      	; 0x1e52 <malloc+0x9a>
    1e4a:	90 93 85 02 	sts	0x0285, r25
    1e4e:	80 93 84 02 	sts	0x0284, r24
    1e52:	fe 01       	movw	r30, r28
    1e54:	32 96       	adiw	r30, 0x02	; 2
    1e56:	44 c0       	rjmp	.+136    	; 0x1ee0 <malloc+0x128>
    1e58:	fe 01       	movw	r30, r28
    1e5a:	e2 0f       	add	r30, r18
    1e5c:	f3 1f       	adc	r31, r19
    1e5e:	81 93       	st	Z+, r24
    1e60:	91 93       	st	Z+, r25
    1e62:	22 50       	subi	r18, 0x02	; 2
    1e64:	31 09       	sbc	r19, r1
    1e66:	39 83       	std	Y+1, r19	; 0x01
    1e68:	28 83       	st	Y, r18
    1e6a:	3a c0       	rjmp	.+116    	; 0x1ee0 <malloc+0x128>
    1e6c:	20 91 82 02 	lds	r18, 0x0282
    1e70:	30 91 83 02 	lds	r19, 0x0283
    1e74:	23 2b       	or	r18, r19
    1e76:	41 f4       	brne	.+16     	; 0x1e88 <malloc+0xd0>
    1e78:	20 91 02 01 	lds	r18, 0x0102
    1e7c:	30 91 03 01 	lds	r19, 0x0103
    1e80:	30 93 83 02 	sts	0x0283, r19
    1e84:	20 93 82 02 	sts	0x0282, r18
    1e88:	20 91 00 01 	lds	r18, 0x0100
    1e8c:	30 91 01 01 	lds	r19, 0x0101
    1e90:	21 15       	cp	r18, r1
    1e92:	31 05       	cpc	r19, r1
    1e94:	41 f4       	brne	.+16     	; 0x1ea6 <malloc+0xee>
    1e96:	2d b7       	in	r18, 0x3d	; 61
    1e98:	3e b7       	in	r19, 0x3e	; 62
    1e9a:	40 91 04 01 	lds	r20, 0x0104
    1e9e:	50 91 05 01 	lds	r21, 0x0105
    1ea2:	24 1b       	sub	r18, r20
    1ea4:	35 0b       	sbc	r19, r21
    1ea6:	e0 91 82 02 	lds	r30, 0x0282
    1eaa:	f0 91 83 02 	lds	r31, 0x0283
    1eae:	e2 17       	cp	r30, r18
    1eb0:	f3 07       	cpc	r31, r19
    1eb2:	a0 f4       	brcc	.+40     	; 0x1edc <malloc+0x124>
    1eb4:	2e 1b       	sub	r18, r30
    1eb6:	3f 0b       	sbc	r19, r31
    1eb8:	28 17       	cp	r18, r24
    1eba:	39 07       	cpc	r19, r25
    1ebc:	78 f0       	brcs	.+30     	; 0x1edc <malloc+0x124>
    1ebe:	ac 01       	movw	r20, r24
    1ec0:	4e 5f       	subi	r20, 0xFE	; 254
    1ec2:	5f 4f       	sbci	r21, 0xFF	; 255
    1ec4:	24 17       	cp	r18, r20
    1ec6:	35 07       	cpc	r19, r21
    1ec8:	48 f0       	brcs	.+18     	; 0x1edc <malloc+0x124>
    1eca:	4e 0f       	add	r20, r30
    1ecc:	5f 1f       	adc	r21, r31
    1ece:	50 93 83 02 	sts	0x0283, r21
    1ed2:	40 93 82 02 	sts	0x0282, r20
    1ed6:	81 93       	st	Z+, r24
    1ed8:	91 93       	st	Z+, r25
    1eda:	02 c0       	rjmp	.+4      	; 0x1ee0 <malloc+0x128>
    1edc:	e0 e0       	ldi	r30, 0x00	; 0
    1ede:	f0 e0       	ldi	r31, 0x00	; 0
    1ee0:	cf 01       	movw	r24, r30
    1ee2:	df 91       	pop	r29
    1ee4:	cf 91       	pop	r28
    1ee6:	08 95       	ret

00001ee8 <free>:
    1ee8:	cf 93       	push	r28
    1eea:	df 93       	push	r29
    1eec:	00 97       	sbiw	r24, 0x00	; 0
    1eee:	09 f4       	brne	.+2      	; 0x1ef2 <free+0xa>
    1ef0:	87 c0       	rjmp	.+270    	; 0x2000 <free+0x118>
    1ef2:	fc 01       	movw	r30, r24
    1ef4:	32 97       	sbiw	r30, 0x02	; 2
    1ef6:	13 82       	std	Z+3, r1	; 0x03
    1ef8:	12 82       	std	Z+2, r1	; 0x02
    1efa:	c0 91 84 02 	lds	r28, 0x0284
    1efe:	d0 91 85 02 	lds	r29, 0x0285
    1f02:	20 97       	sbiw	r28, 0x00	; 0
    1f04:	81 f4       	brne	.+32     	; 0x1f26 <free+0x3e>
    1f06:	20 81       	ld	r18, Z
    1f08:	31 81       	ldd	r19, Z+1	; 0x01
    1f0a:	28 0f       	add	r18, r24
    1f0c:	39 1f       	adc	r19, r25
    1f0e:	80 91 82 02 	lds	r24, 0x0282
    1f12:	90 91 83 02 	lds	r25, 0x0283
    1f16:	82 17       	cp	r24, r18
    1f18:	93 07       	cpc	r25, r19
    1f1a:	79 f5       	brne	.+94     	; 0x1f7a <free+0x92>
    1f1c:	f0 93 83 02 	sts	0x0283, r31
    1f20:	e0 93 82 02 	sts	0x0282, r30
    1f24:	6d c0       	rjmp	.+218    	; 0x2000 <free+0x118>
    1f26:	de 01       	movw	r26, r28
    1f28:	20 e0       	ldi	r18, 0x00	; 0
    1f2a:	30 e0       	ldi	r19, 0x00	; 0
    1f2c:	ae 17       	cp	r26, r30
    1f2e:	bf 07       	cpc	r27, r31
    1f30:	50 f4       	brcc	.+20     	; 0x1f46 <free+0x5e>
    1f32:	12 96       	adiw	r26, 0x02	; 2
    1f34:	4d 91       	ld	r20, X+
    1f36:	5c 91       	ld	r21, X
    1f38:	13 97       	sbiw	r26, 0x03	; 3
    1f3a:	9d 01       	movw	r18, r26
    1f3c:	41 15       	cp	r20, r1
    1f3e:	51 05       	cpc	r21, r1
    1f40:	09 f1       	breq	.+66     	; 0x1f84 <free+0x9c>
    1f42:	da 01       	movw	r26, r20
    1f44:	f3 cf       	rjmp	.-26     	; 0x1f2c <free+0x44>
    1f46:	b3 83       	std	Z+3, r27	; 0x03
    1f48:	a2 83       	std	Z+2, r26	; 0x02
    1f4a:	40 81       	ld	r20, Z
    1f4c:	51 81       	ldd	r21, Z+1	; 0x01
    1f4e:	84 0f       	add	r24, r20
    1f50:	95 1f       	adc	r25, r21
    1f52:	8a 17       	cp	r24, r26
    1f54:	9b 07       	cpc	r25, r27
    1f56:	71 f4       	brne	.+28     	; 0x1f74 <free+0x8c>
    1f58:	8d 91       	ld	r24, X+
    1f5a:	9c 91       	ld	r25, X
    1f5c:	11 97       	sbiw	r26, 0x01	; 1
    1f5e:	84 0f       	add	r24, r20
    1f60:	95 1f       	adc	r25, r21
    1f62:	02 96       	adiw	r24, 0x02	; 2
    1f64:	91 83       	std	Z+1, r25	; 0x01
    1f66:	80 83       	st	Z, r24
    1f68:	12 96       	adiw	r26, 0x02	; 2
    1f6a:	8d 91       	ld	r24, X+
    1f6c:	9c 91       	ld	r25, X
    1f6e:	13 97       	sbiw	r26, 0x03	; 3
    1f70:	93 83       	std	Z+3, r25	; 0x03
    1f72:	82 83       	std	Z+2, r24	; 0x02
    1f74:	21 15       	cp	r18, r1
    1f76:	31 05       	cpc	r19, r1
    1f78:	29 f4       	brne	.+10     	; 0x1f84 <free+0x9c>
    1f7a:	f0 93 85 02 	sts	0x0285, r31
    1f7e:	e0 93 84 02 	sts	0x0284, r30
    1f82:	3e c0       	rjmp	.+124    	; 0x2000 <free+0x118>
    1f84:	d9 01       	movw	r26, r18
    1f86:	13 96       	adiw	r26, 0x03	; 3
    1f88:	fc 93       	st	X, r31
    1f8a:	ee 93       	st	-X, r30
    1f8c:	12 97       	sbiw	r26, 0x02	; 2
    1f8e:	4d 91       	ld	r20, X+
    1f90:	5d 91       	ld	r21, X+
    1f92:	a4 0f       	add	r26, r20
    1f94:	b5 1f       	adc	r27, r21
    1f96:	ea 17       	cp	r30, r26
    1f98:	fb 07       	cpc	r31, r27
    1f9a:	79 f4       	brne	.+30     	; 0x1fba <free+0xd2>
    1f9c:	80 81       	ld	r24, Z
    1f9e:	91 81       	ldd	r25, Z+1	; 0x01
    1fa0:	84 0f       	add	r24, r20
    1fa2:	95 1f       	adc	r25, r21
    1fa4:	02 96       	adiw	r24, 0x02	; 2
    1fa6:	d9 01       	movw	r26, r18
    1fa8:	11 96       	adiw	r26, 0x01	; 1
    1faa:	9c 93       	st	X, r25
    1fac:	8e 93       	st	-X, r24
    1fae:	82 81       	ldd	r24, Z+2	; 0x02
    1fb0:	93 81       	ldd	r25, Z+3	; 0x03
    1fb2:	13 96       	adiw	r26, 0x03	; 3
    1fb4:	9c 93       	st	X, r25
    1fb6:	8e 93       	st	-X, r24
    1fb8:	12 97       	sbiw	r26, 0x02	; 2
    1fba:	e0 e0       	ldi	r30, 0x00	; 0
    1fbc:	f0 e0       	ldi	r31, 0x00	; 0
    1fbe:	8a 81       	ldd	r24, Y+2	; 0x02
    1fc0:	9b 81       	ldd	r25, Y+3	; 0x03
    1fc2:	00 97       	sbiw	r24, 0x00	; 0
    1fc4:	19 f0       	breq	.+6      	; 0x1fcc <free+0xe4>
    1fc6:	fe 01       	movw	r30, r28
    1fc8:	ec 01       	movw	r28, r24
    1fca:	f9 cf       	rjmp	.-14     	; 0x1fbe <free+0xd6>
    1fcc:	ce 01       	movw	r24, r28
    1fce:	02 96       	adiw	r24, 0x02	; 2
    1fd0:	28 81       	ld	r18, Y
    1fd2:	39 81       	ldd	r19, Y+1	; 0x01
    1fd4:	82 0f       	add	r24, r18
    1fd6:	93 1f       	adc	r25, r19
    1fd8:	20 91 82 02 	lds	r18, 0x0282
    1fdc:	30 91 83 02 	lds	r19, 0x0283
    1fe0:	28 17       	cp	r18, r24
    1fe2:	39 07       	cpc	r19, r25
    1fe4:	69 f4       	brne	.+26     	; 0x2000 <free+0x118>
    1fe6:	30 97       	sbiw	r30, 0x00	; 0
    1fe8:	29 f4       	brne	.+10     	; 0x1ff4 <free+0x10c>
    1fea:	10 92 85 02 	sts	0x0285, r1
    1fee:	10 92 84 02 	sts	0x0284, r1
    1ff2:	02 c0       	rjmp	.+4      	; 0x1ff8 <free+0x110>
    1ff4:	13 82       	std	Z+3, r1	; 0x03
    1ff6:	12 82       	std	Z+2, r1	; 0x02
    1ff8:	d0 93 83 02 	sts	0x0283, r29
    1ffc:	c0 93 82 02 	sts	0x0282, r28
    2000:	df 91       	pop	r29
    2002:	cf 91       	pop	r28
    2004:	08 95       	ret

00002006 <realloc>:
    2006:	a0 e0       	ldi	r26, 0x00	; 0
    2008:	b0 e0       	ldi	r27, 0x00	; 0
    200a:	e9 e0       	ldi	r30, 0x09	; 9
    200c:	f0 e1       	ldi	r31, 0x10	; 16
    200e:	0c 94 01 14 	jmp	0x2802	; 0x2802 <__prologue_saves__+0x8>
    2012:	ec 01       	movw	r28, r24
    2014:	cb 01       	movw	r24, r22
    2016:	20 97       	sbiw	r28, 0x00	; 0
    2018:	19 f4       	brne	.+6      	; 0x2020 <realloc+0x1a>
    201a:	0e 94 dc 0e 	call	0x1db8	; 0x1db8 <malloc>
    201e:	b8 c0       	rjmp	.+368    	; 0x2190 <realloc+0x18a>
    2020:	fe 01       	movw	r30, r28
    2022:	e6 0f       	add	r30, r22
    2024:	f7 1f       	adc	r31, r23
    2026:	9e 01       	movw	r18, r28
    2028:	22 50       	subi	r18, 0x02	; 2
    202a:	31 09       	sbc	r19, r1
    202c:	e2 17       	cp	r30, r18
    202e:	f3 07       	cpc	r31, r19
    2030:	08 f4       	brcc	.+2      	; 0x2034 <realloc+0x2e>
    2032:	ac c0       	rjmp	.+344    	; 0x218c <realloc+0x186>
    2034:	d9 01       	movw	r26, r18
    2036:	0d 91       	ld	r16, X+
    2038:	1c 91       	ld	r17, X
    203a:	11 97       	sbiw	r26, 0x01	; 1
    203c:	06 17       	cp	r16, r22
    203e:	17 07       	cpc	r17, r23
    2040:	b8 f0       	brcs	.+46     	; 0x2070 <realloc+0x6a>
    2042:	05 30       	cpi	r16, 0x05	; 5
    2044:	11 05       	cpc	r17, r1
    2046:	08 f4       	brcc	.+2      	; 0x204a <realloc+0x44>
    2048:	9f c0       	rjmp	.+318    	; 0x2188 <realloc+0x182>
    204a:	a8 01       	movw	r20, r16
    204c:	44 50       	subi	r20, 0x04	; 4
    204e:	51 09       	sbc	r21, r1
    2050:	46 17       	cp	r20, r22
    2052:	57 07       	cpc	r21, r23
    2054:	08 f4       	brcc	.+2      	; 0x2058 <realloc+0x52>
    2056:	98 c0       	rjmp	.+304    	; 0x2188 <realloc+0x182>
    2058:	02 50       	subi	r16, 0x02	; 2
    205a:	11 09       	sbc	r17, r1
    205c:	06 1b       	sub	r16, r22
    205e:	17 0b       	sbc	r17, r23
    2060:	01 93       	st	Z+, r16
    2062:	11 93       	st	Z+, r17
    2064:	6d 93       	st	X+, r22
    2066:	7c 93       	st	X, r23
    2068:	cf 01       	movw	r24, r30
    206a:	0e 94 74 0f 	call	0x1ee8	; 0x1ee8 <free>
    206e:	8c c0       	rjmp	.+280    	; 0x2188 <realloc+0x182>
    2070:	5b 01       	movw	r10, r22
    2072:	a0 1a       	sub	r10, r16
    2074:	b1 0a       	sbc	r11, r17
    2076:	4e 01       	movw	r8, r28
    2078:	80 0e       	add	r8, r16
    207a:	91 1e       	adc	r9, r17
    207c:	a0 91 84 02 	lds	r26, 0x0284
    2080:	b0 91 85 02 	lds	r27, 0x0285
    2084:	61 2c       	mov	r6, r1
    2086:	71 2c       	mov	r7, r1
    2088:	60 e0       	ldi	r22, 0x00	; 0
    208a:	70 e0       	ldi	r23, 0x00	; 0
    208c:	10 97       	sbiw	r26, 0x00	; 0
    208e:	09 f4       	brne	.+2      	; 0x2092 <realloc+0x8c>
    2090:	49 c0       	rjmp	.+146    	; 0x2124 <realloc+0x11e>
    2092:	a8 15       	cp	r26, r8
    2094:	b9 05       	cpc	r27, r9
    2096:	c9 f5       	brne	.+114    	; 0x210a <realloc+0x104>
    2098:	ed 90       	ld	r14, X+
    209a:	fc 90       	ld	r15, X
    209c:	11 97       	sbiw	r26, 0x01	; 1
    209e:	67 01       	movw	r12, r14
    20a0:	42 e0       	ldi	r20, 0x02	; 2
    20a2:	c4 0e       	add	r12, r20
    20a4:	d1 1c       	adc	r13, r1
    20a6:	ca 14       	cp	r12, r10
    20a8:	db 04       	cpc	r13, r11
    20aa:	78 f1       	brcs	.+94     	; 0x210a <realloc+0x104>
    20ac:	47 01       	movw	r8, r14
    20ae:	8a 18       	sub	r8, r10
    20b0:	9b 08       	sbc	r9, r11
    20b2:	64 01       	movw	r12, r8
    20b4:	42 e0       	ldi	r20, 0x02	; 2
    20b6:	c4 0e       	add	r12, r20
    20b8:	d1 1c       	adc	r13, r1
    20ba:	12 96       	adiw	r26, 0x02	; 2
    20bc:	bc 90       	ld	r11, X
    20be:	12 97       	sbiw	r26, 0x02	; 2
    20c0:	13 96       	adiw	r26, 0x03	; 3
    20c2:	ac 91       	ld	r26, X
    20c4:	b5 e0       	ldi	r27, 0x05	; 5
    20c6:	cb 16       	cp	r12, r27
    20c8:	d1 04       	cpc	r13, r1
    20ca:	40 f0       	brcs	.+16     	; 0x20dc <realloc+0xd6>
    20cc:	b2 82       	std	Z+2, r11	; 0x02
    20ce:	a3 83       	std	Z+3, r26	; 0x03
    20d0:	91 82       	std	Z+1, r9	; 0x01
    20d2:	80 82       	st	Z, r8
    20d4:	d9 01       	movw	r26, r18
    20d6:	8d 93       	st	X+, r24
    20d8:	9c 93       	st	X, r25
    20da:	09 c0       	rjmp	.+18     	; 0x20ee <realloc+0xe8>
    20dc:	0e 5f       	subi	r16, 0xFE	; 254
    20de:	1f 4f       	sbci	r17, 0xFF	; 255
    20e0:	0e 0d       	add	r16, r14
    20e2:	1f 1d       	adc	r17, r15
    20e4:	f9 01       	movw	r30, r18
    20e6:	11 83       	std	Z+1, r17	; 0x01
    20e8:	00 83       	st	Z, r16
    20ea:	eb 2d       	mov	r30, r11
    20ec:	fa 2f       	mov	r31, r26
    20ee:	61 15       	cp	r22, r1
    20f0:	71 05       	cpc	r23, r1
    20f2:	31 f0       	breq	.+12     	; 0x2100 <realloc+0xfa>
    20f4:	db 01       	movw	r26, r22
    20f6:	13 96       	adiw	r26, 0x03	; 3
    20f8:	fc 93       	st	X, r31
    20fa:	ee 93       	st	-X, r30
    20fc:	12 97       	sbiw	r26, 0x02	; 2
    20fe:	44 c0       	rjmp	.+136    	; 0x2188 <realloc+0x182>
    2100:	f0 93 85 02 	sts	0x0285, r31
    2104:	e0 93 84 02 	sts	0x0284, r30
    2108:	3f c0       	rjmp	.+126    	; 0x2188 <realloc+0x182>
    210a:	6d 91       	ld	r22, X+
    210c:	7c 91       	ld	r23, X
    210e:	11 97       	sbiw	r26, 0x01	; 1
    2110:	66 16       	cp	r6, r22
    2112:	77 06       	cpc	r7, r23
    2114:	08 f4       	brcc	.+2      	; 0x2118 <realloc+0x112>
    2116:	3b 01       	movw	r6, r22
    2118:	bd 01       	movw	r22, r26
    211a:	12 96       	adiw	r26, 0x02	; 2
    211c:	0d 90       	ld	r0, X+
    211e:	bc 91       	ld	r27, X
    2120:	a0 2d       	mov	r26, r0
    2122:	b4 cf       	rjmp	.-152    	; 0x208c <realloc+0x86>
    2124:	60 91 82 02 	lds	r22, 0x0282
    2128:	70 91 83 02 	lds	r23, 0x0283
    212c:	68 15       	cp	r22, r8
    212e:	79 05       	cpc	r23, r9
    2130:	e9 f4       	brne	.+58     	; 0x216c <realloc+0x166>
    2132:	68 16       	cp	r6, r24
    2134:	79 06       	cpc	r7, r25
    2136:	d0 f4       	brcc	.+52     	; 0x216c <realloc+0x166>
    2138:	40 91 00 01 	lds	r20, 0x0100
    213c:	50 91 01 01 	lds	r21, 0x0101
    2140:	41 15       	cp	r20, r1
    2142:	51 05       	cpc	r21, r1
    2144:	41 f4       	brne	.+16     	; 0x2156 <realloc+0x150>
    2146:	4d b7       	in	r20, 0x3d	; 61
    2148:	5e b7       	in	r21, 0x3e	; 62
    214a:	60 91 04 01 	lds	r22, 0x0104
    214e:	70 91 05 01 	lds	r23, 0x0105
    2152:	46 1b       	sub	r20, r22
    2154:	57 0b       	sbc	r21, r23
    2156:	e4 17       	cp	r30, r20
    2158:	f5 07       	cpc	r31, r21
    215a:	c0 f4       	brcc	.+48     	; 0x218c <realloc+0x186>
    215c:	f0 93 83 02 	sts	0x0283, r31
    2160:	e0 93 82 02 	sts	0x0282, r30
    2164:	f9 01       	movw	r30, r18
    2166:	91 83       	std	Z+1, r25	; 0x01
    2168:	80 83       	st	Z, r24
    216a:	0e c0       	rjmp	.+28     	; 0x2188 <realloc+0x182>
    216c:	0e 94 dc 0e 	call	0x1db8	; 0x1db8 <malloc>
    2170:	7c 01       	movw	r14, r24
    2172:	00 97       	sbiw	r24, 0x00	; 0
    2174:	59 f0       	breq	.+22     	; 0x218c <realloc+0x186>
    2176:	a8 01       	movw	r20, r16
    2178:	be 01       	movw	r22, r28
    217a:	0e 94 cd 10 	call	0x219a	; 0x219a <memcpy>
    217e:	ce 01       	movw	r24, r28
    2180:	0e 94 74 0f 	call	0x1ee8	; 0x1ee8 <free>
    2184:	c7 01       	movw	r24, r14
    2186:	04 c0       	rjmp	.+8      	; 0x2190 <realloc+0x18a>
    2188:	ce 01       	movw	r24, r28
    218a:	02 c0       	rjmp	.+4      	; 0x2190 <realloc+0x18a>
    218c:	80 e0       	ldi	r24, 0x00	; 0
    218e:	90 e0       	ldi	r25, 0x00	; 0
    2190:	cd b7       	in	r28, 0x3d	; 61
    2192:	de b7       	in	r29, 0x3e	; 62
    2194:	ee e0       	ldi	r30, 0x0E	; 14
    2196:	0c 94 1d 14 	jmp	0x283a	; 0x283a <__epilogue_restores__+0x8>

0000219a <memcpy>:
    219a:	fb 01       	movw	r30, r22
    219c:	dc 01       	movw	r26, r24
    219e:	02 c0       	rjmp	.+4      	; 0x21a4 <memcpy+0xa>
    21a0:	01 90       	ld	r0, Z+
    21a2:	0d 92       	st	X+, r0
    21a4:	41 50       	subi	r20, 0x01	; 1
    21a6:	50 40       	sbci	r21, 0x00	; 0
    21a8:	d8 f7       	brcc	.-10     	; 0x21a0 <memcpy+0x6>
    21aa:	08 95       	ret

000021ac <fdevopen>:
    21ac:	0f 93       	push	r16
    21ae:	1f 93       	push	r17
    21b0:	cf 93       	push	r28
    21b2:	df 93       	push	r29
    21b4:	ec 01       	movw	r28, r24
    21b6:	8b 01       	movw	r16, r22
    21b8:	00 97       	sbiw	r24, 0x00	; 0
    21ba:	31 f4       	brne	.+12     	; 0x21c8 <fdevopen+0x1c>
    21bc:	61 15       	cp	r22, r1
    21be:	71 05       	cpc	r23, r1
    21c0:	19 f4       	brne	.+6      	; 0x21c8 <fdevopen+0x1c>
    21c2:	80 e0       	ldi	r24, 0x00	; 0
    21c4:	90 e0       	ldi	r25, 0x00	; 0
    21c6:	38 c0       	rjmp	.+112    	; 0x2238 <fdevopen+0x8c>
    21c8:	6e e0       	ldi	r22, 0x0E	; 14
    21ca:	70 e0       	ldi	r23, 0x00	; 0
    21cc:	81 e0       	ldi	r24, 0x01	; 1
    21ce:	90 e0       	ldi	r25, 0x00	; 0
    21d0:	0e 94 34 13 	call	0x2668	; 0x2668 <calloc>
    21d4:	fc 01       	movw	r30, r24
    21d6:	00 97       	sbiw	r24, 0x00	; 0
    21d8:	a1 f3       	breq	.-24     	; 0x21c2 <fdevopen+0x16>
    21da:	80 e8       	ldi	r24, 0x80	; 128
    21dc:	83 83       	std	Z+3, r24	; 0x03
    21de:	01 15       	cp	r16, r1
    21e0:	11 05       	cpc	r17, r1
    21e2:	71 f0       	breq	.+28     	; 0x2200 <fdevopen+0x54>
    21e4:	13 87       	std	Z+11, r17	; 0x0b
    21e6:	02 87       	std	Z+10, r16	; 0x0a
    21e8:	81 e8       	ldi	r24, 0x81	; 129
    21ea:	83 83       	std	Z+3, r24	; 0x03
    21ec:	80 91 86 02 	lds	r24, 0x0286
    21f0:	90 91 87 02 	lds	r25, 0x0287
    21f4:	89 2b       	or	r24, r25
    21f6:	21 f4       	brne	.+8      	; 0x2200 <fdevopen+0x54>
    21f8:	f0 93 87 02 	sts	0x0287, r31
    21fc:	e0 93 86 02 	sts	0x0286, r30
    2200:	20 97       	sbiw	r28, 0x00	; 0
    2202:	c9 f0       	breq	.+50     	; 0x2236 <fdevopen+0x8a>
    2204:	d1 87       	std	Z+9, r29	; 0x09
    2206:	c0 87       	std	Z+8, r28	; 0x08
    2208:	83 81       	ldd	r24, Z+3	; 0x03
    220a:	82 60       	ori	r24, 0x02	; 2
    220c:	83 83       	std	Z+3, r24	; 0x03
    220e:	80 91 88 02 	lds	r24, 0x0288
    2212:	90 91 89 02 	lds	r25, 0x0289
    2216:	89 2b       	or	r24, r25
    2218:	71 f4       	brne	.+28     	; 0x2236 <fdevopen+0x8a>
    221a:	f0 93 89 02 	sts	0x0289, r31
    221e:	e0 93 88 02 	sts	0x0288, r30
    2222:	80 91 8a 02 	lds	r24, 0x028A
    2226:	90 91 8b 02 	lds	r25, 0x028B
    222a:	89 2b       	or	r24, r25
    222c:	21 f4       	brne	.+8      	; 0x2236 <fdevopen+0x8a>
    222e:	f0 93 8b 02 	sts	0x028B, r31
    2232:	e0 93 8a 02 	sts	0x028A, r30
    2236:	cf 01       	movw	r24, r30
    2238:	df 91       	pop	r29
    223a:	cf 91       	pop	r28
    223c:	1f 91       	pop	r17
    223e:	0f 91       	pop	r16
    2240:	08 95       	ret

00002242 <printf>:
    2242:	a0 e0       	ldi	r26, 0x00	; 0
    2244:	b0 e0       	ldi	r27, 0x00	; 0
    2246:	e7 e2       	ldi	r30, 0x27	; 39
    2248:	f1 e1       	ldi	r31, 0x11	; 17
    224a:	0c 94 0d 14 	jmp	0x281a	; 0x281a <__prologue_saves__+0x20>
    224e:	fe 01       	movw	r30, r28
    2250:	35 96       	adiw	r30, 0x05	; 5
    2252:	61 91       	ld	r22, Z+
    2254:	71 91       	ld	r23, Z+
    2256:	af 01       	movw	r20, r30
    2258:	80 91 88 02 	lds	r24, 0x0288
    225c:	90 91 89 02 	lds	r25, 0x0289
    2260:	0e 94 62 11 	call	0x22c4	; 0x22c4 <vfprintf>
    2264:	e2 e0       	ldi	r30, 0x02	; 2
    2266:	0c 94 29 14 	jmp	0x2852	; 0x2852 <__epilogue_restores__+0x20>

0000226a <puts>:
    226a:	0f 93       	push	r16
    226c:	1f 93       	push	r17
    226e:	cf 93       	push	r28
    2270:	df 93       	push	r29
    2272:	e0 91 88 02 	lds	r30, 0x0288
    2276:	f0 91 89 02 	lds	r31, 0x0289
    227a:	23 81       	ldd	r18, Z+3	; 0x03
    227c:	21 ff       	sbrs	r18, 1
    227e:	1b c0       	rjmp	.+54     	; 0x22b6 <puts+0x4c>
    2280:	ec 01       	movw	r28, r24
    2282:	00 e0       	ldi	r16, 0x00	; 0
    2284:	10 e0       	ldi	r17, 0x00	; 0
    2286:	89 91       	ld	r24, Y+
    2288:	60 91 88 02 	lds	r22, 0x0288
    228c:	70 91 89 02 	lds	r23, 0x0289
    2290:	db 01       	movw	r26, r22
    2292:	18 96       	adiw	r26, 0x08	; 8
    2294:	ed 91       	ld	r30, X+
    2296:	fc 91       	ld	r31, X
    2298:	19 97       	sbiw	r26, 0x09	; 9
    229a:	88 23       	and	r24, r24
    229c:	31 f0       	breq	.+12     	; 0x22aa <puts+0x40>
    229e:	09 95       	icall
    22a0:	89 2b       	or	r24, r25
    22a2:	89 f3       	breq	.-30     	; 0x2286 <puts+0x1c>
    22a4:	0f ef       	ldi	r16, 0xFF	; 255
    22a6:	1f ef       	ldi	r17, 0xFF	; 255
    22a8:	ee cf       	rjmp	.-36     	; 0x2286 <puts+0x1c>
    22aa:	8a e0       	ldi	r24, 0x0A	; 10
    22ac:	09 95       	icall
    22ae:	89 2b       	or	r24, r25
    22b0:	11 f4       	brne	.+4      	; 0x22b6 <puts+0x4c>
    22b2:	c8 01       	movw	r24, r16
    22b4:	02 c0       	rjmp	.+4      	; 0x22ba <puts+0x50>
    22b6:	8f ef       	ldi	r24, 0xFF	; 255
    22b8:	9f ef       	ldi	r25, 0xFF	; 255
    22ba:	df 91       	pop	r29
    22bc:	cf 91       	pop	r28
    22be:	1f 91       	pop	r17
    22c0:	0f 91       	pop	r16
    22c2:	08 95       	ret

000022c4 <vfprintf>:
    22c4:	ac e0       	ldi	r26, 0x0C	; 12
    22c6:	b0 e0       	ldi	r27, 0x00	; 0
    22c8:	e8 e6       	ldi	r30, 0x68	; 104
    22ca:	f1 e1       	ldi	r31, 0x11	; 17
    22cc:	0c 94 fd 13 	jmp	0x27fa	; 0x27fa <__prologue_saves__>
    22d0:	7c 01       	movw	r14, r24
    22d2:	6b 01       	movw	r12, r22
    22d4:	8a 01       	movw	r16, r20
    22d6:	fc 01       	movw	r30, r24
    22d8:	17 82       	std	Z+7, r1	; 0x07
    22da:	16 82       	std	Z+6, r1	; 0x06
    22dc:	83 81       	ldd	r24, Z+3	; 0x03
    22de:	81 ff       	sbrs	r24, 1
    22e0:	bd c1       	rjmp	.+890    	; 0x265c <vfprintf+0x398>
    22e2:	ce 01       	movw	r24, r28
    22e4:	01 96       	adiw	r24, 0x01	; 1
    22e6:	4c 01       	movw	r8, r24
    22e8:	f7 01       	movw	r30, r14
    22ea:	93 81       	ldd	r25, Z+3	; 0x03
    22ec:	f6 01       	movw	r30, r12
    22ee:	93 fd       	sbrc	r25, 3
    22f0:	85 91       	lpm	r24, Z+
    22f2:	93 ff       	sbrs	r25, 3
    22f4:	81 91       	ld	r24, Z+
    22f6:	6f 01       	movw	r12, r30
    22f8:	88 23       	and	r24, r24
    22fa:	09 f4       	brne	.+2      	; 0x22fe <vfprintf+0x3a>
    22fc:	ab c1       	rjmp	.+854    	; 0x2654 <vfprintf+0x390>
    22fe:	85 32       	cpi	r24, 0x25	; 37
    2300:	39 f4       	brne	.+14     	; 0x2310 <vfprintf+0x4c>
    2302:	93 fd       	sbrc	r25, 3
    2304:	85 91       	lpm	r24, Z+
    2306:	93 ff       	sbrs	r25, 3
    2308:	81 91       	ld	r24, Z+
    230a:	6f 01       	movw	r12, r30
    230c:	85 32       	cpi	r24, 0x25	; 37
    230e:	29 f4       	brne	.+10     	; 0x231a <vfprintf+0x56>
    2310:	b7 01       	movw	r22, r14
    2312:	90 e0       	ldi	r25, 0x00	; 0
    2314:	0e 94 6d 13 	call	0x26da	; 0x26da <fputc>
    2318:	e7 cf       	rjmp	.-50     	; 0x22e8 <vfprintf+0x24>
    231a:	51 2c       	mov	r5, r1
    231c:	31 2c       	mov	r3, r1
    231e:	20 e0       	ldi	r18, 0x00	; 0
    2320:	20 32       	cpi	r18, 0x20	; 32
    2322:	a0 f4       	brcc	.+40     	; 0x234c <vfprintf+0x88>
    2324:	8b 32       	cpi	r24, 0x2B	; 43
    2326:	69 f0       	breq	.+26     	; 0x2342 <vfprintf+0x7e>
    2328:	30 f4       	brcc	.+12     	; 0x2336 <vfprintf+0x72>
    232a:	80 32       	cpi	r24, 0x20	; 32
    232c:	59 f0       	breq	.+22     	; 0x2344 <vfprintf+0x80>
    232e:	83 32       	cpi	r24, 0x23	; 35
    2330:	69 f4       	brne	.+26     	; 0x234c <vfprintf+0x88>
    2332:	20 61       	ori	r18, 0x10	; 16
    2334:	2c c0       	rjmp	.+88     	; 0x238e <vfprintf+0xca>
    2336:	8d 32       	cpi	r24, 0x2D	; 45
    2338:	39 f0       	breq	.+14     	; 0x2348 <vfprintf+0x84>
    233a:	80 33       	cpi	r24, 0x30	; 48
    233c:	39 f4       	brne	.+14     	; 0x234c <vfprintf+0x88>
    233e:	21 60       	ori	r18, 0x01	; 1
    2340:	26 c0       	rjmp	.+76     	; 0x238e <vfprintf+0xca>
    2342:	22 60       	ori	r18, 0x02	; 2
    2344:	24 60       	ori	r18, 0x04	; 4
    2346:	23 c0       	rjmp	.+70     	; 0x238e <vfprintf+0xca>
    2348:	28 60       	ori	r18, 0x08	; 8
    234a:	21 c0       	rjmp	.+66     	; 0x238e <vfprintf+0xca>
    234c:	27 fd       	sbrc	r18, 7
    234e:	27 c0       	rjmp	.+78     	; 0x239e <vfprintf+0xda>
    2350:	30 ed       	ldi	r19, 0xD0	; 208
    2352:	38 0f       	add	r19, r24
    2354:	3a 30       	cpi	r19, 0x0A	; 10
    2356:	78 f4       	brcc	.+30     	; 0x2376 <vfprintf+0xb2>
    2358:	26 ff       	sbrs	r18, 6
    235a:	06 c0       	rjmp	.+12     	; 0x2368 <vfprintf+0xa4>
    235c:	fa e0       	ldi	r31, 0x0A	; 10
    235e:	5f 9e       	mul	r5, r31
    2360:	30 0d       	add	r19, r0
    2362:	11 24       	eor	r1, r1
    2364:	53 2e       	mov	r5, r19
    2366:	13 c0       	rjmp	.+38     	; 0x238e <vfprintf+0xca>
    2368:	8a e0       	ldi	r24, 0x0A	; 10
    236a:	38 9e       	mul	r3, r24
    236c:	30 0d       	add	r19, r0
    236e:	11 24       	eor	r1, r1
    2370:	33 2e       	mov	r3, r19
    2372:	20 62       	ori	r18, 0x20	; 32
    2374:	0c c0       	rjmp	.+24     	; 0x238e <vfprintf+0xca>
    2376:	8e 32       	cpi	r24, 0x2E	; 46
    2378:	21 f4       	brne	.+8      	; 0x2382 <vfprintf+0xbe>
    237a:	26 fd       	sbrc	r18, 6
    237c:	6b c1       	rjmp	.+726    	; 0x2654 <vfprintf+0x390>
    237e:	20 64       	ori	r18, 0x40	; 64
    2380:	06 c0       	rjmp	.+12     	; 0x238e <vfprintf+0xca>
    2382:	8c 36       	cpi	r24, 0x6C	; 108
    2384:	11 f4       	brne	.+4      	; 0x238a <vfprintf+0xc6>
    2386:	20 68       	ori	r18, 0x80	; 128
    2388:	02 c0       	rjmp	.+4      	; 0x238e <vfprintf+0xca>
    238a:	88 36       	cpi	r24, 0x68	; 104
    238c:	41 f4       	brne	.+16     	; 0x239e <vfprintf+0xda>
    238e:	f6 01       	movw	r30, r12
    2390:	93 fd       	sbrc	r25, 3
    2392:	85 91       	lpm	r24, Z+
    2394:	93 ff       	sbrs	r25, 3
    2396:	81 91       	ld	r24, Z+
    2398:	6f 01       	movw	r12, r30
    239a:	81 11       	cpse	r24, r1
    239c:	c1 cf       	rjmp	.-126    	; 0x2320 <vfprintf+0x5c>
    239e:	98 2f       	mov	r25, r24
    23a0:	9f 7d       	andi	r25, 0xDF	; 223
    23a2:	95 54       	subi	r25, 0x45	; 69
    23a4:	93 30       	cpi	r25, 0x03	; 3
    23a6:	28 f4       	brcc	.+10     	; 0x23b2 <vfprintf+0xee>
    23a8:	0c 5f       	subi	r16, 0xFC	; 252
    23aa:	1f 4f       	sbci	r17, 0xFF	; 255
    23ac:	ff e3       	ldi	r31, 0x3F	; 63
    23ae:	f9 83       	std	Y+1, r31	; 0x01
    23b0:	0d c0       	rjmp	.+26     	; 0x23cc <vfprintf+0x108>
    23b2:	83 36       	cpi	r24, 0x63	; 99
    23b4:	31 f0       	breq	.+12     	; 0x23c2 <vfprintf+0xfe>
    23b6:	83 37       	cpi	r24, 0x73	; 115
    23b8:	71 f0       	breq	.+28     	; 0x23d6 <vfprintf+0x112>
    23ba:	83 35       	cpi	r24, 0x53	; 83
    23bc:	09 f0       	breq	.+2      	; 0x23c0 <vfprintf+0xfc>
    23be:	5b c0       	rjmp	.+182    	; 0x2476 <vfprintf+0x1b2>
    23c0:	22 c0       	rjmp	.+68     	; 0x2406 <vfprintf+0x142>
    23c2:	f8 01       	movw	r30, r16
    23c4:	80 81       	ld	r24, Z
    23c6:	89 83       	std	Y+1, r24	; 0x01
    23c8:	0e 5f       	subi	r16, 0xFE	; 254
    23ca:	1f 4f       	sbci	r17, 0xFF	; 255
    23cc:	44 24       	eor	r4, r4
    23ce:	43 94       	inc	r4
    23d0:	51 2c       	mov	r5, r1
    23d2:	54 01       	movw	r10, r8
    23d4:	15 c0       	rjmp	.+42     	; 0x2400 <vfprintf+0x13c>
    23d6:	38 01       	movw	r6, r16
    23d8:	f2 e0       	ldi	r31, 0x02	; 2
    23da:	6f 0e       	add	r6, r31
    23dc:	71 1c       	adc	r7, r1
    23de:	f8 01       	movw	r30, r16
    23e0:	a0 80       	ld	r10, Z
    23e2:	b1 80       	ldd	r11, Z+1	; 0x01
    23e4:	26 ff       	sbrs	r18, 6
    23e6:	03 c0       	rjmp	.+6      	; 0x23ee <vfprintf+0x12a>
    23e8:	65 2d       	mov	r22, r5
    23ea:	70 e0       	ldi	r23, 0x00	; 0
    23ec:	02 c0       	rjmp	.+4      	; 0x23f2 <vfprintf+0x12e>
    23ee:	6f ef       	ldi	r22, 0xFF	; 255
    23f0:	7f ef       	ldi	r23, 0xFF	; 255
    23f2:	c5 01       	movw	r24, r10
    23f4:	2c 87       	std	Y+12, r18	; 0x0c
    23f6:	0e 94 62 13 	call	0x26c4	; 0x26c4 <strnlen>
    23fa:	2c 01       	movw	r4, r24
    23fc:	83 01       	movw	r16, r6
    23fe:	2c 85       	ldd	r18, Y+12	; 0x0c
    2400:	2f 77       	andi	r18, 0x7F	; 127
    2402:	22 2e       	mov	r2, r18
    2404:	17 c0       	rjmp	.+46     	; 0x2434 <vfprintf+0x170>
    2406:	38 01       	movw	r6, r16
    2408:	f2 e0       	ldi	r31, 0x02	; 2
    240a:	6f 0e       	add	r6, r31
    240c:	71 1c       	adc	r7, r1
    240e:	f8 01       	movw	r30, r16
    2410:	a0 80       	ld	r10, Z
    2412:	b1 80       	ldd	r11, Z+1	; 0x01
    2414:	26 ff       	sbrs	r18, 6
    2416:	03 c0       	rjmp	.+6      	; 0x241e <vfprintf+0x15a>
    2418:	65 2d       	mov	r22, r5
    241a:	70 e0       	ldi	r23, 0x00	; 0
    241c:	02 c0       	rjmp	.+4      	; 0x2422 <vfprintf+0x15e>
    241e:	6f ef       	ldi	r22, 0xFF	; 255
    2420:	7f ef       	ldi	r23, 0xFF	; 255
    2422:	c5 01       	movw	r24, r10
    2424:	2c 87       	std	Y+12, r18	; 0x0c
    2426:	0e 94 50 13 	call	0x26a0	; 0x26a0 <strnlen_P>
    242a:	2c 01       	movw	r4, r24
    242c:	2c 85       	ldd	r18, Y+12	; 0x0c
    242e:	20 68       	ori	r18, 0x80	; 128
    2430:	22 2e       	mov	r2, r18
    2432:	83 01       	movw	r16, r6
    2434:	23 fc       	sbrc	r2, 3
    2436:	1b c0       	rjmp	.+54     	; 0x246e <vfprintf+0x1aa>
    2438:	83 2d       	mov	r24, r3
    243a:	90 e0       	ldi	r25, 0x00	; 0
    243c:	48 16       	cp	r4, r24
    243e:	59 06       	cpc	r5, r25
    2440:	b0 f4       	brcc	.+44     	; 0x246e <vfprintf+0x1aa>
    2442:	b7 01       	movw	r22, r14
    2444:	80 e2       	ldi	r24, 0x20	; 32
    2446:	90 e0       	ldi	r25, 0x00	; 0
    2448:	0e 94 6d 13 	call	0x26da	; 0x26da <fputc>
    244c:	3a 94       	dec	r3
    244e:	f4 cf       	rjmp	.-24     	; 0x2438 <vfprintf+0x174>
    2450:	f5 01       	movw	r30, r10
    2452:	27 fc       	sbrc	r2, 7
    2454:	85 91       	lpm	r24, Z+
    2456:	27 fe       	sbrs	r2, 7
    2458:	81 91       	ld	r24, Z+
    245a:	5f 01       	movw	r10, r30
    245c:	b7 01       	movw	r22, r14
    245e:	90 e0       	ldi	r25, 0x00	; 0
    2460:	0e 94 6d 13 	call	0x26da	; 0x26da <fputc>
    2464:	31 10       	cpse	r3, r1
    2466:	3a 94       	dec	r3
    2468:	f1 e0       	ldi	r31, 0x01	; 1
    246a:	4f 1a       	sub	r4, r31
    246c:	51 08       	sbc	r5, r1
    246e:	41 14       	cp	r4, r1
    2470:	51 04       	cpc	r5, r1
    2472:	71 f7       	brne	.-36     	; 0x2450 <vfprintf+0x18c>
    2474:	e5 c0       	rjmp	.+458    	; 0x2640 <vfprintf+0x37c>
    2476:	84 36       	cpi	r24, 0x64	; 100
    2478:	11 f0       	breq	.+4      	; 0x247e <vfprintf+0x1ba>
    247a:	89 36       	cpi	r24, 0x69	; 105
    247c:	39 f5       	brne	.+78     	; 0x24cc <vfprintf+0x208>
    247e:	f8 01       	movw	r30, r16
    2480:	27 ff       	sbrs	r18, 7
    2482:	07 c0       	rjmp	.+14     	; 0x2492 <vfprintf+0x1ce>
    2484:	60 81       	ld	r22, Z
    2486:	71 81       	ldd	r23, Z+1	; 0x01
    2488:	82 81       	ldd	r24, Z+2	; 0x02
    248a:	93 81       	ldd	r25, Z+3	; 0x03
    248c:	0c 5f       	subi	r16, 0xFC	; 252
    248e:	1f 4f       	sbci	r17, 0xFF	; 255
    2490:	08 c0       	rjmp	.+16     	; 0x24a2 <vfprintf+0x1de>
    2492:	60 81       	ld	r22, Z
    2494:	71 81       	ldd	r23, Z+1	; 0x01
    2496:	88 27       	eor	r24, r24
    2498:	77 fd       	sbrc	r23, 7
    249a:	80 95       	com	r24
    249c:	98 2f       	mov	r25, r24
    249e:	0e 5f       	subi	r16, 0xFE	; 254
    24a0:	1f 4f       	sbci	r17, 0xFF	; 255
    24a2:	2f 76       	andi	r18, 0x6F	; 111
    24a4:	b2 2e       	mov	r11, r18
    24a6:	97 ff       	sbrs	r25, 7
    24a8:	09 c0       	rjmp	.+18     	; 0x24bc <vfprintf+0x1f8>
    24aa:	90 95       	com	r25
    24ac:	80 95       	com	r24
    24ae:	70 95       	com	r23
    24b0:	61 95       	neg	r22
    24b2:	7f 4f       	sbci	r23, 0xFF	; 255
    24b4:	8f 4f       	sbci	r24, 0xFF	; 255
    24b6:	9f 4f       	sbci	r25, 0xFF	; 255
    24b8:	20 68       	ori	r18, 0x80	; 128
    24ba:	b2 2e       	mov	r11, r18
    24bc:	2a e0       	ldi	r18, 0x0A	; 10
    24be:	30 e0       	ldi	r19, 0x00	; 0
    24c0:	a4 01       	movw	r20, r8
    24c2:	0e 94 9f 13 	call	0x273e	; 0x273e <__ultoa_invert>
    24c6:	a8 2e       	mov	r10, r24
    24c8:	a8 18       	sub	r10, r8
    24ca:	44 c0       	rjmp	.+136    	; 0x2554 <vfprintf+0x290>
    24cc:	85 37       	cpi	r24, 0x75	; 117
    24ce:	29 f4       	brne	.+10     	; 0x24da <vfprintf+0x216>
    24d0:	2f 7e       	andi	r18, 0xEF	; 239
    24d2:	b2 2e       	mov	r11, r18
    24d4:	2a e0       	ldi	r18, 0x0A	; 10
    24d6:	30 e0       	ldi	r19, 0x00	; 0
    24d8:	25 c0       	rjmp	.+74     	; 0x2524 <vfprintf+0x260>
    24da:	f2 2f       	mov	r31, r18
    24dc:	f9 7f       	andi	r31, 0xF9	; 249
    24de:	bf 2e       	mov	r11, r31
    24e0:	8f 36       	cpi	r24, 0x6F	; 111
    24e2:	c1 f0       	breq	.+48     	; 0x2514 <vfprintf+0x250>
    24e4:	18 f4       	brcc	.+6      	; 0x24ec <vfprintf+0x228>
    24e6:	88 35       	cpi	r24, 0x58	; 88
    24e8:	79 f0       	breq	.+30     	; 0x2508 <vfprintf+0x244>
    24ea:	b4 c0       	rjmp	.+360    	; 0x2654 <vfprintf+0x390>
    24ec:	80 37       	cpi	r24, 0x70	; 112
    24ee:	19 f0       	breq	.+6      	; 0x24f6 <vfprintf+0x232>
    24f0:	88 37       	cpi	r24, 0x78	; 120
    24f2:	21 f0       	breq	.+8      	; 0x24fc <vfprintf+0x238>
    24f4:	af c0       	rjmp	.+350    	; 0x2654 <vfprintf+0x390>
    24f6:	2f 2f       	mov	r18, r31
    24f8:	20 61       	ori	r18, 0x10	; 16
    24fa:	b2 2e       	mov	r11, r18
    24fc:	b4 fe       	sbrs	r11, 4
    24fe:	0d c0       	rjmp	.+26     	; 0x251a <vfprintf+0x256>
    2500:	8b 2d       	mov	r24, r11
    2502:	84 60       	ori	r24, 0x04	; 4
    2504:	b8 2e       	mov	r11, r24
    2506:	09 c0       	rjmp	.+18     	; 0x251a <vfprintf+0x256>
    2508:	24 ff       	sbrs	r18, 4
    250a:	0a c0       	rjmp	.+20     	; 0x2520 <vfprintf+0x25c>
    250c:	9f 2f       	mov	r25, r31
    250e:	96 60       	ori	r25, 0x06	; 6
    2510:	b9 2e       	mov	r11, r25
    2512:	06 c0       	rjmp	.+12     	; 0x2520 <vfprintf+0x25c>
    2514:	28 e0       	ldi	r18, 0x08	; 8
    2516:	30 e0       	ldi	r19, 0x00	; 0
    2518:	05 c0       	rjmp	.+10     	; 0x2524 <vfprintf+0x260>
    251a:	20 e1       	ldi	r18, 0x10	; 16
    251c:	30 e0       	ldi	r19, 0x00	; 0
    251e:	02 c0       	rjmp	.+4      	; 0x2524 <vfprintf+0x260>
    2520:	20 e1       	ldi	r18, 0x10	; 16
    2522:	32 e0       	ldi	r19, 0x02	; 2
    2524:	f8 01       	movw	r30, r16
    2526:	b7 fe       	sbrs	r11, 7
    2528:	07 c0       	rjmp	.+14     	; 0x2538 <vfprintf+0x274>
    252a:	60 81       	ld	r22, Z
    252c:	71 81       	ldd	r23, Z+1	; 0x01
    252e:	82 81       	ldd	r24, Z+2	; 0x02
    2530:	93 81       	ldd	r25, Z+3	; 0x03
    2532:	0c 5f       	subi	r16, 0xFC	; 252
    2534:	1f 4f       	sbci	r17, 0xFF	; 255
    2536:	06 c0       	rjmp	.+12     	; 0x2544 <vfprintf+0x280>
    2538:	60 81       	ld	r22, Z
    253a:	71 81       	ldd	r23, Z+1	; 0x01
    253c:	80 e0       	ldi	r24, 0x00	; 0
    253e:	90 e0       	ldi	r25, 0x00	; 0
    2540:	0e 5f       	subi	r16, 0xFE	; 254
    2542:	1f 4f       	sbci	r17, 0xFF	; 255
    2544:	a4 01       	movw	r20, r8
    2546:	0e 94 9f 13 	call	0x273e	; 0x273e <__ultoa_invert>
    254a:	a8 2e       	mov	r10, r24
    254c:	a8 18       	sub	r10, r8
    254e:	fb 2d       	mov	r31, r11
    2550:	ff 77       	andi	r31, 0x7F	; 127
    2552:	bf 2e       	mov	r11, r31
    2554:	b6 fe       	sbrs	r11, 6
    2556:	0b c0       	rjmp	.+22     	; 0x256e <vfprintf+0x2aa>
    2558:	2b 2d       	mov	r18, r11
    255a:	2e 7f       	andi	r18, 0xFE	; 254
    255c:	a5 14       	cp	r10, r5
    255e:	50 f4       	brcc	.+20     	; 0x2574 <vfprintf+0x2b0>
    2560:	b4 fe       	sbrs	r11, 4
    2562:	0a c0       	rjmp	.+20     	; 0x2578 <vfprintf+0x2b4>
    2564:	b2 fc       	sbrc	r11, 2
    2566:	08 c0       	rjmp	.+16     	; 0x2578 <vfprintf+0x2b4>
    2568:	2b 2d       	mov	r18, r11
    256a:	2e 7e       	andi	r18, 0xEE	; 238
    256c:	05 c0       	rjmp	.+10     	; 0x2578 <vfprintf+0x2b4>
    256e:	7a 2c       	mov	r7, r10
    2570:	2b 2d       	mov	r18, r11
    2572:	03 c0       	rjmp	.+6      	; 0x257a <vfprintf+0x2b6>
    2574:	7a 2c       	mov	r7, r10
    2576:	01 c0       	rjmp	.+2      	; 0x257a <vfprintf+0x2b6>
    2578:	75 2c       	mov	r7, r5
    257a:	24 ff       	sbrs	r18, 4
    257c:	0d c0       	rjmp	.+26     	; 0x2598 <vfprintf+0x2d4>
    257e:	fe 01       	movw	r30, r28
    2580:	ea 0d       	add	r30, r10
    2582:	f1 1d       	adc	r31, r1
    2584:	80 81       	ld	r24, Z
    2586:	80 33       	cpi	r24, 0x30	; 48
    2588:	11 f4       	brne	.+4      	; 0x258e <vfprintf+0x2ca>
    258a:	29 7e       	andi	r18, 0xE9	; 233
    258c:	09 c0       	rjmp	.+18     	; 0x25a0 <vfprintf+0x2dc>
    258e:	22 ff       	sbrs	r18, 2
    2590:	06 c0       	rjmp	.+12     	; 0x259e <vfprintf+0x2da>
    2592:	73 94       	inc	r7
    2594:	73 94       	inc	r7
    2596:	04 c0       	rjmp	.+8      	; 0x25a0 <vfprintf+0x2dc>
    2598:	82 2f       	mov	r24, r18
    259a:	86 78       	andi	r24, 0x86	; 134
    259c:	09 f0       	breq	.+2      	; 0x25a0 <vfprintf+0x2dc>
    259e:	73 94       	inc	r7
    25a0:	23 fd       	sbrc	r18, 3
    25a2:	13 c0       	rjmp	.+38     	; 0x25ca <vfprintf+0x306>
    25a4:	20 ff       	sbrs	r18, 0
    25a6:	06 c0       	rjmp	.+12     	; 0x25b4 <vfprintf+0x2f0>
    25a8:	5a 2c       	mov	r5, r10
    25aa:	73 14       	cp	r7, r3
    25ac:	18 f4       	brcc	.+6      	; 0x25b4 <vfprintf+0x2f0>
    25ae:	53 0c       	add	r5, r3
    25b0:	57 18       	sub	r5, r7
    25b2:	73 2c       	mov	r7, r3
    25b4:	73 14       	cp	r7, r3
    25b6:	68 f4       	brcc	.+26     	; 0x25d2 <vfprintf+0x30e>
    25b8:	b7 01       	movw	r22, r14
    25ba:	80 e2       	ldi	r24, 0x20	; 32
    25bc:	90 e0       	ldi	r25, 0x00	; 0
    25be:	2c 87       	std	Y+12, r18	; 0x0c
    25c0:	0e 94 6d 13 	call	0x26da	; 0x26da <fputc>
    25c4:	73 94       	inc	r7
    25c6:	2c 85       	ldd	r18, Y+12	; 0x0c
    25c8:	f5 cf       	rjmp	.-22     	; 0x25b4 <vfprintf+0x2f0>
    25ca:	73 14       	cp	r7, r3
    25cc:	10 f4       	brcc	.+4      	; 0x25d2 <vfprintf+0x30e>
    25ce:	37 18       	sub	r3, r7
    25d0:	01 c0       	rjmp	.+2      	; 0x25d4 <vfprintf+0x310>
    25d2:	31 2c       	mov	r3, r1
    25d4:	24 ff       	sbrs	r18, 4
    25d6:	12 c0       	rjmp	.+36     	; 0x25fc <vfprintf+0x338>
    25d8:	b7 01       	movw	r22, r14
    25da:	80 e3       	ldi	r24, 0x30	; 48
    25dc:	90 e0       	ldi	r25, 0x00	; 0
    25de:	2c 87       	std	Y+12, r18	; 0x0c
    25e0:	0e 94 6d 13 	call	0x26da	; 0x26da <fputc>
    25e4:	2c 85       	ldd	r18, Y+12	; 0x0c
    25e6:	22 ff       	sbrs	r18, 2
    25e8:	17 c0       	rjmp	.+46     	; 0x2618 <vfprintf+0x354>
    25ea:	21 ff       	sbrs	r18, 1
    25ec:	03 c0       	rjmp	.+6      	; 0x25f4 <vfprintf+0x330>
    25ee:	88 e5       	ldi	r24, 0x58	; 88
    25f0:	90 e0       	ldi	r25, 0x00	; 0
    25f2:	02 c0       	rjmp	.+4      	; 0x25f8 <vfprintf+0x334>
    25f4:	88 e7       	ldi	r24, 0x78	; 120
    25f6:	90 e0       	ldi	r25, 0x00	; 0
    25f8:	b7 01       	movw	r22, r14
    25fa:	0c c0       	rjmp	.+24     	; 0x2614 <vfprintf+0x350>
    25fc:	82 2f       	mov	r24, r18
    25fe:	86 78       	andi	r24, 0x86	; 134
    2600:	59 f0       	breq	.+22     	; 0x2618 <vfprintf+0x354>
    2602:	21 fd       	sbrc	r18, 1
    2604:	02 c0       	rjmp	.+4      	; 0x260a <vfprintf+0x346>
    2606:	80 e2       	ldi	r24, 0x20	; 32
    2608:	01 c0       	rjmp	.+2      	; 0x260c <vfprintf+0x348>
    260a:	8b e2       	ldi	r24, 0x2B	; 43
    260c:	27 fd       	sbrc	r18, 7
    260e:	8d e2       	ldi	r24, 0x2D	; 45
    2610:	b7 01       	movw	r22, r14
    2612:	90 e0       	ldi	r25, 0x00	; 0
    2614:	0e 94 6d 13 	call	0x26da	; 0x26da <fputc>
    2618:	a5 14       	cp	r10, r5
    261a:	38 f4       	brcc	.+14     	; 0x262a <vfprintf+0x366>
    261c:	b7 01       	movw	r22, r14
    261e:	80 e3       	ldi	r24, 0x30	; 48
    2620:	90 e0       	ldi	r25, 0x00	; 0
    2622:	0e 94 6d 13 	call	0x26da	; 0x26da <fputc>
    2626:	5a 94       	dec	r5
    2628:	f7 cf       	rjmp	.-18     	; 0x2618 <vfprintf+0x354>
    262a:	aa 94       	dec	r10
    262c:	f4 01       	movw	r30, r8
    262e:	ea 0d       	add	r30, r10
    2630:	f1 1d       	adc	r31, r1
    2632:	80 81       	ld	r24, Z
    2634:	b7 01       	movw	r22, r14
    2636:	90 e0       	ldi	r25, 0x00	; 0
    2638:	0e 94 6d 13 	call	0x26da	; 0x26da <fputc>
    263c:	a1 10       	cpse	r10, r1
    263e:	f5 cf       	rjmp	.-22     	; 0x262a <vfprintf+0x366>
    2640:	33 20       	and	r3, r3
    2642:	09 f4       	brne	.+2      	; 0x2646 <vfprintf+0x382>
    2644:	51 ce       	rjmp	.-862    	; 0x22e8 <vfprintf+0x24>
    2646:	b7 01       	movw	r22, r14
    2648:	80 e2       	ldi	r24, 0x20	; 32
    264a:	90 e0       	ldi	r25, 0x00	; 0
    264c:	0e 94 6d 13 	call	0x26da	; 0x26da <fputc>
    2650:	3a 94       	dec	r3
    2652:	f6 cf       	rjmp	.-20     	; 0x2640 <vfprintf+0x37c>
    2654:	f7 01       	movw	r30, r14
    2656:	86 81       	ldd	r24, Z+6	; 0x06
    2658:	97 81       	ldd	r25, Z+7	; 0x07
    265a:	02 c0       	rjmp	.+4      	; 0x2660 <vfprintf+0x39c>
    265c:	8f ef       	ldi	r24, 0xFF	; 255
    265e:	9f ef       	ldi	r25, 0xFF	; 255
    2660:	2c 96       	adiw	r28, 0x0c	; 12
    2662:	e2 e1       	ldi	r30, 0x12	; 18
    2664:	0c 94 19 14 	jmp	0x2832	; 0x2832 <__epilogue_restores__>

00002668 <calloc>:
    2668:	0f 93       	push	r16
    266a:	1f 93       	push	r17
    266c:	cf 93       	push	r28
    266e:	df 93       	push	r29
    2670:	86 9f       	mul	r24, r22
    2672:	80 01       	movw	r16, r0
    2674:	87 9f       	mul	r24, r23
    2676:	10 0d       	add	r17, r0
    2678:	96 9f       	mul	r25, r22
    267a:	10 0d       	add	r17, r0
    267c:	11 24       	eor	r1, r1
    267e:	c8 01       	movw	r24, r16
    2680:	0e 94 dc 0e 	call	0x1db8	; 0x1db8 <malloc>
    2684:	ec 01       	movw	r28, r24
    2686:	00 97       	sbiw	r24, 0x00	; 0
    2688:	29 f0       	breq	.+10     	; 0x2694 <calloc+0x2c>
    268a:	a8 01       	movw	r20, r16
    268c:	60 e0       	ldi	r22, 0x00	; 0
    268e:	70 e0       	ldi	r23, 0x00	; 0
    2690:	0e 94 5b 13 	call	0x26b6	; 0x26b6 <memset>
    2694:	ce 01       	movw	r24, r28
    2696:	df 91       	pop	r29
    2698:	cf 91       	pop	r28
    269a:	1f 91       	pop	r17
    269c:	0f 91       	pop	r16
    269e:	08 95       	ret

000026a0 <strnlen_P>:
    26a0:	fc 01       	movw	r30, r24
    26a2:	05 90       	lpm	r0, Z+
    26a4:	61 50       	subi	r22, 0x01	; 1
    26a6:	70 40       	sbci	r23, 0x00	; 0
    26a8:	01 10       	cpse	r0, r1
    26aa:	d8 f7       	brcc	.-10     	; 0x26a2 <strnlen_P+0x2>
    26ac:	80 95       	com	r24
    26ae:	90 95       	com	r25
    26b0:	8e 0f       	add	r24, r30
    26b2:	9f 1f       	adc	r25, r31
    26b4:	08 95       	ret

000026b6 <memset>:
    26b6:	dc 01       	movw	r26, r24
    26b8:	01 c0       	rjmp	.+2      	; 0x26bc <memset+0x6>
    26ba:	6d 93       	st	X+, r22
    26bc:	41 50       	subi	r20, 0x01	; 1
    26be:	50 40       	sbci	r21, 0x00	; 0
    26c0:	e0 f7       	brcc	.-8      	; 0x26ba <memset+0x4>
    26c2:	08 95       	ret

000026c4 <strnlen>:
    26c4:	fc 01       	movw	r30, r24
    26c6:	61 50       	subi	r22, 0x01	; 1
    26c8:	70 40       	sbci	r23, 0x00	; 0
    26ca:	01 90       	ld	r0, Z+
    26cc:	01 10       	cpse	r0, r1
    26ce:	d8 f7       	brcc	.-10     	; 0x26c6 <strnlen+0x2>
    26d0:	80 95       	com	r24
    26d2:	90 95       	com	r25
    26d4:	8e 0f       	add	r24, r30
    26d6:	9f 1f       	adc	r25, r31
    26d8:	08 95       	ret

000026da <fputc>:
    26da:	0f 93       	push	r16
    26dc:	1f 93       	push	r17
    26de:	cf 93       	push	r28
    26e0:	df 93       	push	r29
    26e2:	18 2f       	mov	r17, r24
    26e4:	09 2f       	mov	r16, r25
    26e6:	eb 01       	movw	r28, r22
    26e8:	8b 81       	ldd	r24, Y+3	; 0x03
    26ea:	81 fd       	sbrc	r24, 1
    26ec:	03 c0       	rjmp	.+6      	; 0x26f4 <fputc+0x1a>
    26ee:	8f ef       	ldi	r24, 0xFF	; 255
    26f0:	9f ef       	ldi	r25, 0xFF	; 255
    26f2:	20 c0       	rjmp	.+64     	; 0x2734 <fputc+0x5a>
    26f4:	82 ff       	sbrs	r24, 2
    26f6:	10 c0       	rjmp	.+32     	; 0x2718 <fputc+0x3e>
    26f8:	4e 81       	ldd	r20, Y+6	; 0x06
    26fa:	5f 81       	ldd	r21, Y+7	; 0x07
    26fc:	2c 81       	ldd	r18, Y+4	; 0x04
    26fe:	3d 81       	ldd	r19, Y+5	; 0x05
    2700:	42 17       	cp	r20, r18
    2702:	53 07       	cpc	r21, r19
    2704:	7c f4       	brge	.+30     	; 0x2724 <fputc+0x4a>
    2706:	e8 81       	ld	r30, Y
    2708:	f9 81       	ldd	r31, Y+1	; 0x01
    270a:	9f 01       	movw	r18, r30
    270c:	2f 5f       	subi	r18, 0xFF	; 255
    270e:	3f 4f       	sbci	r19, 0xFF	; 255
    2710:	39 83       	std	Y+1, r19	; 0x01
    2712:	28 83       	st	Y, r18
    2714:	10 83       	st	Z, r17
    2716:	06 c0       	rjmp	.+12     	; 0x2724 <fputc+0x4a>
    2718:	e8 85       	ldd	r30, Y+8	; 0x08
    271a:	f9 85       	ldd	r31, Y+9	; 0x09
    271c:	81 2f       	mov	r24, r17
    271e:	09 95       	icall
    2720:	89 2b       	or	r24, r25
    2722:	29 f7       	brne	.-54     	; 0x26ee <fputc+0x14>
    2724:	2e 81       	ldd	r18, Y+6	; 0x06
    2726:	3f 81       	ldd	r19, Y+7	; 0x07
    2728:	2f 5f       	subi	r18, 0xFF	; 255
    272a:	3f 4f       	sbci	r19, 0xFF	; 255
    272c:	3f 83       	std	Y+7, r19	; 0x07
    272e:	2e 83       	std	Y+6, r18	; 0x06
    2730:	81 2f       	mov	r24, r17
    2732:	90 2f       	mov	r25, r16
    2734:	df 91       	pop	r29
    2736:	cf 91       	pop	r28
    2738:	1f 91       	pop	r17
    273a:	0f 91       	pop	r16
    273c:	08 95       	ret

0000273e <__ultoa_invert>:
    273e:	fa 01       	movw	r30, r20
    2740:	aa 27       	eor	r26, r26
    2742:	28 30       	cpi	r18, 0x08	; 8
    2744:	51 f1       	breq	.+84     	; 0x279a <__ultoa_invert+0x5c>
    2746:	20 31       	cpi	r18, 0x10	; 16
    2748:	81 f1       	breq	.+96     	; 0x27aa <__ultoa_invert+0x6c>
    274a:	e8 94       	clt
    274c:	6f 93       	push	r22
    274e:	6e 7f       	andi	r22, 0xFE	; 254
    2750:	6e 5f       	subi	r22, 0xFE	; 254
    2752:	7f 4f       	sbci	r23, 0xFF	; 255
    2754:	8f 4f       	sbci	r24, 0xFF	; 255
    2756:	9f 4f       	sbci	r25, 0xFF	; 255
    2758:	af 4f       	sbci	r26, 0xFF	; 255
    275a:	b1 e0       	ldi	r27, 0x01	; 1
    275c:	3e d0       	rcall	.+124    	; 0x27da <__ultoa_invert+0x9c>
    275e:	b4 e0       	ldi	r27, 0x04	; 4
    2760:	3c d0       	rcall	.+120    	; 0x27da <__ultoa_invert+0x9c>
    2762:	67 0f       	add	r22, r23
    2764:	78 1f       	adc	r23, r24
    2766:	89 1f       	adc	r24, r25
    2768:	9a 1f       	adc	r25, r26
    276a:	a1 1d       	adc	r26, r1
    276c:	68 0f       	add	r22, r24
    276e:	79 1f       	adc	r23, r25
    2770:	8a 1f       	adc	r24, r26
    2772:	91 1d       	adc	r25, r1
    2774:	a1 1d       	adc	r26, r1
    2776:	6a 0f       	add	r22, r26
    2778:	71 1d       	adc	r23, r1
    277a:	81 1d       	adc	r24, r1
    277c:	91 1d       	adc	r25, r1
    277e:	a1 1d       	adc	r26, r1
    2780:	20 d0       	rcall	.+64     	; 0x27c2 <__ultoa_invert+0x84>
    2782:	09 f4       	brne	.+2      	; 0x2786 <__ultoa_invert+0x48>
    2784:	68 94       	set
    2786:	3f 91       	pop	r19
    2788:	2a e0       	ldi	r18, 0x0A	; 10
    278a:	26 9f       	mul	r18, r22
    278c:	11 24       	eor	r1, r1
    278e:	30 19       	sub	r19, r0
    2790:	30 5d       	subi	r19, 0xD0	; 208
    2792:	31 93       	st	Z+, r19
    2794:	de f6       	brtc	.-74     	; 0x274c <__ultoa_invert+0xe>
    2796:	cf 01       	movw	r24, r30
    2798:	08 95       	ret
    279a:	46 2f       	mov	r20, r22
    279c:	47 70       	andi	r20, 0x07	; 7
    279e:	40 5d       	subi	r20, 0xD0	; 208
    27a0:	41 93       	st	Z+, r20
    27a2:	b3 e0       	ldi	r27, 0x03	; 3
    27a4:	0f d0       	rcall	.+30     	; 0x27c4 <__ultoa_invert+0x86>
    27a6:	c9 f7       	brne	.-14     	; 0x279a <__ultoa_invert+0x5c>
    27a8:	f6 cf       	rjmp	.-20     	; 0x2796 <__ultoa_invert+0x58>
    27aa:	46 2f       	mov	r20, r22
    27ac:	4f 70       	andi	r20, 0x0F	; 15
    27ae:	40 5d       	subi	r20, 0xD0	; 208
    27b0:	4a 33       	cpi	r20, 0x3A	; 58
    27b2:	18 f0       	brcs	.+6      	; 0x27ba <__ultoa_invert+0x7c>
    27b4:	49 5d       	subi	r20, 0xD9	; 217
    27b6:	31 fd       	sbrc	r19, 1
    27b8:	40 52       	subi	r20, 0x20	; 32
    27ba:	41 93       	st	Z+, r20
    27bc:	02 d0       	rcall	.+4      	; 0x27c2 <__ultoa_invert+0x84>
    27be:	a9 f7       	brne	.-22     	; 0x27aa <__ultoa_invert+0x6c>
    27c0:	ea cf       	rjmp	.-44     	; 0x2796 <__ultoa_invert+0x58>
    27c2:	b4 e0       	ldi	r27, 0x04	; 4
    27c4:	a6 95       	lsr	r26
    27c6:	97 95       	ror	r25
    27c8:	87 95       	ror	r24
    27ca:	77 95       	ror	r23
    27cc:	67 95       	ror	r22
    27ce:	ba 95       	dec	r27
    27d0:	c9 f7       	brne	.-14     	; 0x27c4 <__ultoa_invert+0x86>
    27d2:	00 97       	sbiw	r24, 0x00	; 0
    27d4:	61 05       	cpc	r22, r1
    27d6:	71 05       	cpc	r23, r1
    27d8:	08 95       	ret
    27da:	9b 01       	movw	r18, r22
    27dc:	ac 01       	movw	r20, r24
    27de:	0a 2e       	mov	r0, r26
    27e0:	06 94       	lsr	r0
    27e2:	57 95       	ror	r21
    27e4:	47 95       	ror	r20
    27e6:	37 95       	ror	r19
    27e8:	27 95       	ror	r18
    27ea:	ba 95       	dec	r27
    27ec:	c9 f7       	brne	.-14     	; 0x27e0 <__ultoa_invert+0xa2>
    27ee:	62 0f       	add	r22, r18
    27f0:	73 1f       	adc	r23, r19
    27f2:	84 1f       	adc	r24, r20
    27f4:	95 1f       	adc	r25, r21
    27f6:	a0 1d       	adc	r26, r0
    27f8:	08 95       	ret

000027fa <__prologue_saves__>:
    27fa:	2f 92       	push	r2
    27fc:	3f 92       	push	r3
    27fe:	4f 92       	push	r4
    2800:	5f 92       	push	r5
    2802:	6f 92       	push	r6
    2804:	7f 92       	push	r7
    2806:	8f 92       	push	r8
    2808:	9f 92       	push	r9
    280a:	af 92       	push	r10
    280c:	bf 92       	push	r11
    280e:	cf 92       	push	r12
    2810:	df 92       	push	r13
    2812:	ef 92       	push	r14
    2814:	ff 92       	push	r15
    2816:	0f 93       	push	r16
    2818:	1f 93       	push	r17
    281a:	cf 93       	push	r28
    281c:	df 93       	push	r29
    281e:	cd b7       	in	r28, 0x3d	; 61
    2820:	de b7       	in	r29, 0x3e	; 62
    2822:	ca 1b       	sub	r28, r26
    2824:	db 0b       	sbc	r29, r27
    2826:	0f b6       	in	r0, 0x3f	; 63
    2828:	f8 94       	cli
    282a:	de bf       	out	0x3e, r29	; 62
    282c:	0f be       	out	0x3f, r0	; 63
    282e:	cd bf       	out	0x3d, r28	; 61
    2830:	09 94       	ijmp

00002832 <__epilogue_restores__>:
    2832:	2a 88       	ldd	r2, Y+18	; 0x12
    2834:	39 88       	ldd	r3, Y+17	; 0x11
    2836:	48 88       	ldd	r4, Y+16	; 0x10
    2838:	5f 84       	ldd	r5, Y+15	; 0x0f
    283a:	6e 84       	ldd	r6, Y+14	; 0x0e
    283c:	7d 84       	ldd	r7, Y+13	; 0x0d
    283e:	8c 84       	ldd	r8, Y+12	; 0x0c
    2840:	9b 84       	ldd	r9, Y+11	; 0x0b
    2842:	aa 84       	ldd	r10, Y+10	; 0x0a
    2844:	b9 84       	ldd	r11, Y+9	; 0x09
    2846:	c8 84       	ldd	r12, Y+8	; 0x08
    2848:	df 80       	ldd	r13, Y+7	; 0x07
    284a:	ee 80       	ldd	r14, Y+6	; 0x06
    284c:	fd 80       	ldd	r15, Y+5	; 0x05
    284e:	0c 81       	ldd	r16, Y+4	; 0x04
    2850:	1b 81       	ldd	r17, Y+3	; 0x03
    2852:	aa 81       	ldd	r26, Y+2	; 0x02
    2854:	b9 81       	ldd	r27, Y+1	; 0x01
    2856:	ce 0f       	add	r28, r30
    2858:	d1 1d       	adc	r29, r1
    285a:	0f b6       	in	r0, 0x3f	; 63
    285c:	f8 94       	cli
    285e:	de bf       	out	0x3e, r29	; 62
    2860:	0f be       	out	0x3f, r0	; 63
    2862:	cd bf       	out	0x3d, r28	; 61
    2864:	ed 01       	movw	r28, r26
    2866:	08 95       	ret

00002868 <_exit>:
    2868:	f8 94       	cli

0000286a <__stop_program>:
    286a:	ff cf       	rjmp	.-2      	; 0x286a <__stop_program>
